
riscv-spike.elf:     file format elf64-littleriscv
riscv-spike.elf
architecture: riscv:rv64, flags 0x00000112:
EXEC_P, HAS_SYMS, D_PAGED
start address 0x0000000010011100

Program Header:
    LOAD off    0x0000000000001000 vaddr 0x0000000010010000 paddr 0x0000000010010000 align 2**12
         filesz 0x000000000000694e memsz 0x000000000000694e flags r-x
    LOAD off    0x0000000000008000 vaddr 0x0000000010050000 paddr 0x0000000010050000 align 2**12
         filesz 0x0000000000000338 memsz 0x000000000001b8e8 flags rw-

Sections:
Idx Name          Size      VMA               LMA               File off  Algn
  0 .text         0000694e  0000000010010000  0000000010010000  00001000  2**6
                  CONTENTS, ALLOC, LOAD, READONLY, CODE
  1 .rodata       0000030d  0000000010050000  0000000010050000  00008000  2**3
                  CONTENTS, ALLOC, LOAD, READONLY, DATA
  2 .sbss         00000008  0000000010050310  0000000010050310  0000830d  2**3
                  ALLOC
  3 .sdata        00000020  0000000010050318  0000000010050318  00008318  2**3
                  CONTENTS, ALLOC, LOAD, DATA
  4 .data         00000000  0000000010050338  0000000010050338  00008338  2**0
                  CONTENTS, ALLOC, LOAD, DATA
  5 .bss          000195a8  0000000010050340  0000000010050340  00008338  2**6
                  ALLOC
  6 .heap         00001000  00000000100698e8  00000000100698e8  00008338  2**0
                  ALLOC
  7 .stack        00001000  000000001006a8e8  000000001006a8e8  00008338  2**0
                  ALLOC
  8 .riscv.attributes 00000035  0000000000000000  0000000000000000  00008338  2**0
                  CONTENTS, READONLY
  9 .comment      00000011  0000000000000000  0000000000000000  0000836d  2**0
                  CONTENTS, READONLY
 10 .debug_info   00002489  0000000000000000  0000000000000000  0000837e  2**0
                  CONTENTS, READONLY, DEBUGGING
 11 .debug_abbrev 000006ef  0000000000000000  0000000000000000  0000a807  2**0
                  CONTENTS, READONLY, DEBUGGING
 12 .debug_loc    00000915  0000000000000000  0000000000000000  0000aef6  2**0
                  CONTENTS, READONLY, DEBUGGING
 13 .debug_aranges 000000c0  0000000000000000  0000000000000000  0000b810  2**4
                  CONTENTS, READONLY, DEBUGGING
 14 .debug_ranges 000000c0  0000000000000000  0000000000000000  0000b8d0  2**0
                  CONTENTS, READONLY, DEBUGGING
 15 .debug_line   00000d6d  0000000000000000  0000000000000000  0000b990  2**0
                  CONTENTS, READONLY, DEBUGGING
 16 .debug_str    0000093f  0000000000000000  0000000000000000  0000c6fd  2**0
                  CONTENTS, READONLY, DEBUGGING
 17 .debug_frame  00000078  0000000000000000  0000000000000000  0000d040  2**3
                  CONTENTS, READONLY, DEBUGGING
SYMBOL TABLE:
0000000010010000 l    d  .text	0000000000000000 .text
0000000010050000 l    d  .rodata	0000000000000000 .rodata
0000000010050310 l    d  .sbss	0000000000000000 .sbss
0000000010050318 l    d  .sdata	0000000000000000 .sdata
0000000010050338 l    d  .data	0000000000000000 .data
0000000010050340 l    d  .bss	0000000000000000 .bss
00000000100698e8 l    d  .heap	0000000000000000 .heap
000000001006a8e8 l    d  .stack	0000000000000000 .stack
0000000000000000 l    d  .riscv.attributes	0000000000000000 .riscv.attributes
0000000000000000 l    d  .comment	0000000000000000 .comment
0000000000000000 l    d  .debug_info	0000000000000000 .debug_info
0000000000000000 l    d  .debug_abbrev	0000000000000000 .debug_abbrev
0000000000000000 l    d  .debug_loc	0000000000000000 .debug_loc
0000000000000000 l    d  .debug_aranges	0000000000000000 .debug_aranges
0000000000000000 l    d  .debug_ranges	0000000000000000 .debug_ranges
0000000000000000 l    d  .debug_line	0000000000000000 .debug_line
0000000000000000 l    d  .debug_str	0000000000000000 .debug_str
0000000000000000 l    d  .debug_frame	0000000000000000 .debug_frame
0000000000000000 l    df *ABS*	0000000000000000 arch/boot.o
0000000010011000 l       .text	0000000000000000 user_trap_entry
00000000100111ce l       .text	0000000000000000 trap_entry
0000000010011040 l       .text	0000000000000000 supervisor_trap_entry
0000000010011080 l       .text	0000000000000000 hypervisor_trap_entry
00000000100110c0 l       .text	0000000000000000 machine_trap_entry
0000000010011146 l       .text	0000000000000000 init_bss
0000000010011278 l       .text	0000000000000000 fill_block
000000001001115c l       .text	0000000000000000 init_sbss
0000000010011172 l       .text	0000000000000000 init_sbss2
0000000010011188 l       .text	0000000000000000 write_stack_pattern
00000000100111aa l       .text	0000000000000000 init_stack
00000000100111b6 l       .text	0000000000000000 interrupt
00000000100111ca l       .text	0000000000000000 softwareInterrupt
0000000010011282 l       .text	0000000000000000 fb_end
0000000000000000 l    df *ABS*	0000000000000000 port.c
0000000010050328 l     O .sdata	0000000000000008 uxCriticalNesting
0000000010011580 l     F .text	0000000000000004 prvSetNextTimerInterrupt
0000000010011590 l     F .text	000000000000001a prvTaskExitError
0000000000000000 l    df *ABS*	0000000000000000 croutine.c
0000000000000000 l    df *ABS*	0000000000000000 list.c
0000000000000000 l    df *ABS*	0000000000000000 queue.c
00000000100120b0 l     F .text	00000000000000d8 prvCopyDataToQueue
00000000100122ae l     F .text	000000000000002c prvIsQueueFull
00000000100121d2 l     F .text	0000000000000092 prvUnlockQueue
0000000010012188 l     F .text	000000000000004a prvCopyDataFromQueue
0000000010012264 l     F .text	0000000000000026 prvIsQueueEmpty
0000000000000000 l    df *ABS*	0000000000000000 tasks.c
0000000010050438 l     O .bss	00000000000000c8 pxReadyTasksLists
0000000010050500 l     O .bss	0000000000000028 xDelayedTaskList1
0000000010050528 l     O .bss	0000000000000028 xDelayedTaskList2
0000000010050550 l     O .bss	0000000000000008 pxDelayedTaskList
0000000010050558 l     O .bss	0000000000000008 pxOverflowDelayedTaskList
0000000010050560 l     O .bss	0000000000000028 xPendingReadyList
0000000010050588 l     O .bss	0000000000000028 xTasksWaitingTermination
00000000100505b0 l     O .bss	0000000000000008 uxTasksDeleted
00000000100505b8 l     O .bss	0000000000000028 xSuspendedTaskList
00000000100505e0 l     O .bss	0000000000000008 uxCurrentNumberOfTasks
00000000100505e8 l     O .bss	0000000000000004 xTickCount
00000000100505f0 l     O .bss	0000000000000008 uxTopReadyPriority
00000000100505f8 l     O .bss	0000000000000008 xSchedulerRunning
0000000010050600 l     O .bss	0000000000000008 uxPendedTicks
0000000010050608 l     O .bss	0000000000000008 xYieldPending
0000000010050610 l     O .bss	0000000000000008 xNumOfOverflows
0000000010050618 l     O .bss	0000000000000008 uxTaskNumber
0000000010050620 l     O .bss	0000000000000004 xNextTaskUnblockTime
0000000010050628 l     O .bss	0000000000000008 uxSchedulerSuspended
00000000100138fc l     F .text	000000000000006c prvAllocateTCBAndStack
00000000100136a2 l     F .text	00000000000000ba prvInitialiseTCBVariables
000000001001375c l     F .text	0000000000000094 prvInitialiseTaskLists
0000000010013b26 l     F .text	0000000000000042 prvResetNextTaskUnblockTime
0000000010013878 l     F .text	0000000000000084 prvAddCurrentTaskToDelayedList
0000000010012a7c l     F .text	0000000000000056 prvTaskIsTaskSuspended
0000000010013682 l     F .text	0000000000000020 prvIdleTask
0000000010013968 l     F .text	0000000000000168 prvListTaskWithinSingleList
00000000100137f0 l     F .text	0000000000000088 prvCheckTasksWaitingTermination
0000000010013b08 l     F .text	000000000000001e prvDeleteTCB
0000000010013ad0 l     F .text	0000000000000038 prvTaskCheckFreeStackSpace
0000000000000000 l    df *ABS*	0000000000000000 timers.c
0000000010050630 l     O .bss	0000000000000028 xActiveTimerList1
0000000010050658 l     O .bss	0000000000000028 xActiveTimerList2
0000000010050680 l     O .bss	0000000000000008 pxCurrentTimerList
0000000010050688 l     O .bss	0000000000000008 pxOverflowTimerList
0000000010050690 l     O .bss	0000000000000008 xTimerQueue
0000000010014978 l     F .text	000000000000009a prvCheckForValidListAndQueue
00000000100145ec l     F .text	0000000000000024 prvTimerTask
0000000010014570 l     F .text	000000000000007c prvProcessExpiredTimer
000000001001471e l     F .text	000000000000009a prvInsertTimerInActiveList
000000001001469e l     F .text	000000000000003c prvGetNextExpireTime
0000000010014610 l     F .text	000000000000008e prvProcessTimerOrBlockTask
00000000100147b8 l     F .text	00000000000000f6 prvProcessReceivedCommands
00000000100146da l     F .text	0000000000000044 prvSampleTimeNow
0000000010050698 l     O .bss	0000000000000004 xLastTime.2143
00000000100148ae l     F .text	00000000000000ca prvSwitchTimerLists
0000000000000000 l    df *ABS*	0000000000000000 event_groups.c
0000000010014f90 l     F .text	0000000000000042 prvTestWaitCondition
0000000000000000 l    df *ABS*	0000000000000000 heap_2.c
00000000100506a0 l     O .bss	0000000000019000 ucHeap
0000000010050320 l     O .sdata	0000000000000002 heapSTRUCT_SIZE
00000000100696a0 l     O .bss	0000000000000010 xStart
00000000100696b0 l     O .bss	0000000000000010 xEnd
0000000010050330 l     O .sdata	0000000000000008 xFreeBytesRemaining
00000000100696c0 l     O .bss	0000000000000008 xHeapHasBeenInitialised.1896
00000000100151a6 l     F .text	000000000000005e prvHeapInit
0000000000000000 l    df *ABS*	0000000000000000 syscalls.c
0000000010015204 l     F .text	0000000000000038 prvSyscallToHost
000000001001523c l     F .text	0000000000000006 prvSyscallExit
0000000010015242 l     F .text	000000000000002a printstr
0000000000000000 l    df *ABS*	0000000000000000 clib.c
0000000010069700 l     O .bss	0000000000000004 buflen.2241
0000000010069740 l     O .bss	0000000000000040 buf.2240
00000000100153c8 l     F .text	00000000000000d4 printnum
000000001001549c l     F .text	0000000000000052 getuint
00000000100154ee l     F .text	000000000000004e getint
000000001001553c l     F .text	000000000000027e vFormatPrintString
0000000010015812 l     F .text	000000000000002e sprintf_putch.2349
0000000000000000 l    df *ABS*	0000000000000000 main.c
0000000010015928 l     F .text	0000000000000092 prvCheckTimerCallback
0000000000000000 l    df *ABS*	0000000000000000 blocktim.c
0000000010069780 l     O .bss	0000000000000008 xTestQueue
0000000010069788 l     O .bss	0000000000000008 xSecondary
0000000010069790 l     O .bss	0000000000000008 xPrimaryCycles
0000000010069798 l     O .bss	0000000000000008 xSecondaryCycles
00000000100697a0 l     O .bss	0000000000000008 xErrorOccurred
00000000100697a8 l     O .bss	0000000000000008 xRunIndicator
0000000010015a50 l     F .text	00000000000003cc vPrimaryBlockTimeTestTask
0000000010015e1c l     F .text	000000000000013a vSecondaryBlockTimeTestTask
00000000100697b0 l     O .bss	0000000000000008 xLastPrimaryCycleCount.1466
00000000100697b8 l     O .bss	0000000000000008 xLastSecondaryCycleCount.1467
0000000000000000 l    df *ABS*	0000000000000000 countsem.c
00000000100697c0 l     O .bss	0000000000000008 xErrorDetected
00000000100697c8 l     O .bss	0000000000000030 xParameters
00000000100161d8 l     F .text	000000000000006a prvCountingSemaphoreTask
00000000100160c4 l     F .text	000000000000008a prvDecrementSemaphoreCount
000000001001614e l     F .text	000000000000008a prvIncrementSemaphoreCount
00000000100697f8 l     O .bss	0000000000000008 uxLastCount0.1447
0000000010069800 l     O .bss	0000000000000008 uxLastCount1.1448
0000000000000000 l    df *ABS*	0000000000000000 recmutex.c
0000000010069808 l     O .bss	0000000000000008 xMutex
0000000010069810 l     O .bss	0000000000000008 xErrorOccurred
0000000010069818 l     O .bss	0000000000000008 xControllingIsSuspended
0000000010069820 l     O .bss	0000000000000008 xBlockingIsSuspended
0000000010069828 l     O .bss	0000000000000008 uxControllingCycles
0000000010069830 l     O .bss	0000000000000008 uxBlockingCycles
0000000010069838 l     O .bss	0000000000000008 uxPollingCycles
0000000010069840 l     O .bss	0000000000000008 xControllingTaskHandle
0000000010069848 l     O .bss	0000000000000008 xBlockingTaskHandle
0000000010016362 l     F .text	00000000000000e6 prvRecursiveMutexControllingTask
0000000010016448 l     F .text	00000000000000b4 prvRecursiveMutexBlockingTask
00000000100164fc l     F .text	0000000000000164 prvRecursiveMutexPollingTask
0000000010069850 l     O .bss	0000000000000008 uxLastControllingCycles.1452
0000000010069858 l     O .bss	0000000000000008 uxLastBlockingCycles.1453
0000000010069860 l     O .bss	0000000000000008 uxLastPollingCycles.1454
0000000000000000 l    df *ABS*	0000000000000000 memcpy.c
0000000000000000 l    df *ABS*	0000000000000000 strlen.c
0000000000000000 l    df *ABS*	0000000000000000 strnlen.c
0000000010015346 g     F .text	0000000000000082 putchar
00000000100132d0 g     F .text	00000000000000a8 vTaskPlaceOnUnorderedEventList
0000000010015196 g     F .text	000000000000000c xPortGetFreeHeapSize
0000000010014dcc g     F .text	000000000000002c xEventGroupGetBitsFromISR
00000000100115bc g     F .text	0000000000000014 vPortSetInterruptMask
000000001001280e g     F .text	0000000000000030 uxTaskPriorityGet
000000001001444c g     F .text	000000000000006a xTimerCreate
00000000100157d4 g     F .text	000000000000003e printf
00000000100123a4 g     F .text	000000000000005e vQueueWaitForMessageRestricted
0000000010014aca g     F .text	000000000000014a xEventGroupSync
0000000010015f56 g     F .text	000000000000006a xAreBlockTimeTestTasksStillRunning
0000000010013d40 g     F .text	0000000000000028 vTaskEnterCritical
000000001001526c g     F .text	000000000000001e syscall
0000000010011bb2 g     F .text	00000000000000cc xQueueGenericSendFromISR
0000000010011938 g     F .text	0000000000000056 xQueueGiveMutexRecursive
00000000100162b4 g     F .text	00000000000000ae vStartRecursiveMutexTasks
0000000010050310 g     O .sbss	0000000000000008 pxCurrentTCB
0000000010050310 g       .sbss	0000000000000000 __sbss_start
0000000010014fd2 g     F .text	000000000000001e uxEventGroupGetNumber
0000000010050b18 g       .sdata	0000000000000000 _gp
0000000010012878 g     F .text	0000000000000144 vTaskPrioritySet
0000000010014c14 g     F .text	000000000000015e xEventGroupWaitBits
0000000010011370 g       .text	0000000000000000 xPortStartScheduler
0000000010012ca8 g     F .text	000000000000001c vTaskEndScheduler
0000000010016710 g     F .text	00000000000000de memcpy
0000000010013252 g     F .text	000000000000007e vTaskPlaceOnEventList
0000000010016660 g     F .text	00000000000000b0 xAreRecursiveMutexTasksStillRunning
0000000010012402 g     F .text	0000000000000192 xTaskGenericCreate
0000000010011f68 g     F .text	0000000000000078 xQueuePeekFromISR
0000000010015120 g     F .text	0000000000000076 vPortFree
000000001005030d g       .rodata	0000000000000000 __rodata_end
0000000010012080 g     F .text	000000000000000e uxQueueGetQueueNumber
0000000010050338 g       .data	0000000000000000 __sbss2_end
000000001001167c g     F .text	0000000000000040 vListInsertEnd
0000000010014a9e g     F .text	000000000000002c xEventGroupCreate
0000000010014f58 g     F .text	000000000000001c vEventGroupSetBitsCallback
0000000010012b74 g     F .text	00000000000000be xTaskResumeFromISR
000000001001166c g     F .text	0000000000000010 vListInitialiseItem
000000001001161c g     F .text	000000000000001c vPortSysTickHandler
0000000010069868 g     O .bss	0000000000000080 xQueueRegistry
00000000100115aa g     F .text	0000000000000012 vPortClearInterruptMask
000000001001283e g     F .text	000000000000003a uxTaskPriorityGetFromISR
000000001006a8e8 g       .heap	0000000000000000 _heap_end
0000000010014df8 g     F .text	0000000000000112 xEventGroupSetBits
00000000100698e8 g       .bss	0000000000000000 __bss_end
0000000010014ff0 g     F .text	0000000000000130 pvPortMalloc
0000000010012058 g     F .text	0000000000000028 vQueueDelete
0000000010011450 g       .text	0000000000000000 vPortEndScheduler
0000000010011638 g     F .text	0000000000000034 vListInitialise
000000001001692c g     F .text	0000000000000022 strnlen
0000000010012e0c g     F .text	0000000000000020 xTaskGetTickCount
0000000010011a42 g     F .text	0000000000000170 xQueueGenericSend
0000000010012e62 g     F .text	0000000000000120 uxTaskGetSystemState
0000000010016242 g     F .text	0000000000000072 xAreCountingSemaphoreTasksStillRunning
0000000010013c80 g     F .text	00000000000000c0 xTaskPriorityDisinherit
00000000100698e8 g       .heap	0000000000000000 _heap_start
0000000010050318 g       .sbss	0000000000000000 __sbss_end
00000000100159ba g     F .text	0000000000000006 vApplicationMallocFailedHook
00000000100133f4 g     F .text	00000000000000ba xTaskRemoveFromEventList
0000000010014d72 g     F .text	000000000000005a xEventGroupClearBits
0000000010012594 g     F .text	00000000000000b8 vTaskDelete
000000001001235c g     F .text	0000000000000048 vQueueUnregisterQueue
0000000010013dd6 g     F .text	0000000000000024 pvTaskIncrementMutexHeldCount
0000000010050338 g       .data	0000000000000000 __sbss2_start
0000000010013594 g     F .text	00000000000000a8 xTaskCheckForTimeOut
0000000010013dfa g     F .text	00000000000000e2 ulTaskNotifyTake
0000000010012cc4 g     F .text	0000000000000018 vTaskSuspendAll
0000000010012776 g     F .text	0000000000000098 eTaskGetState
0000000010012e2c g     F .text	000000000000002a xTaskGetTickCountFromISR
0000000010050000 g       .rodata	0000000000000000 __rodata_start
000000001001172c g     F .text	000000000000004c uxListRemove
0000000010050338 g       .data	0000000000000000 __data_end
0000000010013ba8 g     F .text	00000000000000d8 vTaskPriorityInherit
00000000100143b4 g     F .text	000000000000004c xTaskNotifyStateClear
0000000010012ad2 g     F .text	00000000000000a2 vTaskResume
0000000010013132 g     F .text	0000000000000120 vTaskSwitchContext
0000000010013378 g     F .text	000000000000007c vTaskPlaceOnEventListRestricted
0000000010013edc g     F .text	000000000000012c xTaskNotifyWait
00000000100144b6 g     F .text	000000000000009e xTimerGenericCommand
0000000010013668 g     F .text	000000000000001a vTaskSetTaskNumber
00000000100159c4 g     F .text	000000000000000c vApplicationStackOverflowHook
00000000100129bc g     F .text	00000000000000c0 vTaskSuspend
0000000010012e56 g     F .text	000000000000000c uxTaskGetNumberOfTasks
00000000100114d6 g       .text	0000000000000000 vPortYield
000000001001198e g     F .text	000000000000006a xQueueTakeMutexRecursive
0000000010014f0a g     F .text	000000000000004e vEventGroupDelete
0000000010014008 g     F .text	0000000000000146 xTaskGenericNotify
0000000010050340 g       .bss	0000000000000000 __bss_start
0000000000001000 g       *ABS*	0000000000000000 _STACK_SIZE
00000000100167ee g     F .text	00000000000000aa memset
000000001001364a g     F .text	000000000000001e uxTaskGetTaskNumber
0000000010050340 g     O .bss	00000000000000f8 xStartContext
00000000100158ce g     F .text	000000000000005a main
00000000100159d0 g     F .text	0000000000000080 vCreateBlockTimeTasks
0000000000001000 g       *ABS*	0000000000000000 _HEAP_SIZE
00000000100116bc g     F .text	0000000000000070 vListInsert
0000000010014400 g     F .text	000000000000004c xTimerCreateTimerTask
00000000100120a0 g     F .text	0000000000000010 ucQueueGetQueueType
0000000010014554 g     F .text	000000000000001c pcTimerGetTimerName
000000001001264c g     F .text	00000000000000c8 vTaskDelayUntil
000000001006a8e8 g       .stack	0000000000000000 _stack_end
0000000010011ec2 g     F .text	00000000000000a6 xQueueReceiveFromISR
0000000010013b68 g     F .text	0000000000000014 xTaskGetCurrentTaskHandle
0000000010011826 g     F .text	000000000000008c xQueueGenericCreate
00000000100119f8 g     F .text	000000000000004a xQueueCreateCountingSemaphore
000000001001414e g     F .text	0000000000000176 xTaskGenericNotifyFromISR
000000001001208e g     F .text	0000000000000012 vQueueSetQueueNumber
00000000100134ae g     F .text	00000000000000b6 xTaskRemoveFromUnorderedEventList
0000000010012cdc g     F .text	0000000000000130 xTaskResumeAll
0000000010012008 g     F .text	0000000000000034 uxQueueSpacesAvailable
0000000010015840 g     F .text	000000000000008e sprintf
0000000010012c32 g     F .text	0000000000000076 vTaskStartScheduler
00000000100122da g     F .text	000000000000002a xQueueIsQueueFullFromISR
0000000010014a46 g     F .text	000000000000002c pvTimerGetTimerID
0000000010015fc0 g     F .text	0000000000000104 vStartCountingSemaphoreTasks
0000000010011100 g       .text	0000000000000000 _mstart
000000001001363c g     F .text	000000000000000e vTaskMissedYield
0000000010011fe0 g     F .text	0000000000000028 uxQueueMessagesWaiting
0000000010011d2e g     F .text	0000000000000194 xQueueGenericReceive
0000000010012304 g     F .text	0000000000000058 vQueueAddToRegistry
0000000010012f82 g     F .text	00000000000001b0 xTaskIncrementTick
00000000100152aa g     F .text	0000000000000020 vSyscallInit
000000001006b8e8 g       .stack	0000000000000000 __stack
0000000010011778 g     F .text	00000000000000ae xQueueGenericReset
0000000010014a72 g     F .text	000000000000002c vTimerSetTimerID
000000001006b8e8 g       .stack	0000000000000000 _end
0000000010011584 g     F .text	000000000000000c vPortSetupTimer
00000000100151a2 g     F .text	0000000000000004 vPortInitialiseBlocks
0000000010014a12 g     F .text	0000000000000034 xTimerIsTimerActive
00000000100698e8 g       .heap	0000000000000000 _heap
00000000100157ba g     F .text	000000000000001a exit
0000000010012714 g     F .text	0000000000000062 vTaskDelay
00000000100152ca g     F .text	000000000000007c ulSyscallTrap
0000000010013b7c g     F .text	000000000000002c xTaskGetSchedulerState
0000000010013d68 g     F .text	0000000000000038 vTaskExitCritical
0000000010016898 g     F .text	0000000000000094 strlen
00000000100115d0 g     F .text	000000000000004c pxPortInitialiseStack
000000001006b8e8 g       .stack	0000000000000000 _stack
0000000010013564 g     F .text	0000000000000030 vTaskSetTimeOutState
0000000010050338 g       .data	0000000000000000 __data_start
00000000100112c2 g       .text	0000000000000000 TIMER_CMP_INT
000000001001203c g     F .text	000000000000001c uxQueueMessagesWaitingFromISR
000000001001228a g     F .text	0000000000000024 xQueueIsQueueEmptyFromISR
0000000010013da0 g     F .text	0000000000000036 uxTaskResetEventItemValue
00000000100118b2 g     F .text	0000000000000086 xQueueCreateMutex
00000000100142c4 g     F .text	00000000000000f0 vTaskNotifyGiveFromISR
0000000010014f74 g     F .text	000000000000001c vEventGroupClearBitsCallback
0000000010011c7e g     F .text	00000000000000b0 xQueueGiveFromISR
00000000100159c0 g     F .text	0000000000000004 vApplicationIdleHook



Disassembly of section .text:

0000000010010000 <user_trap_entry-0x1000>:
	...

0000000010011000 <user_trap_entry>:
    10011000:	a2f9                	j	100111ce <trap_entry>
    10011002:	0001                	nop
    10011004:	00000013          	nop
    10011008:	00000013          	nop
    1001100c:	00000013          	nop
    10011010:	00000013          	nop
    10011014:	00000013          	nop
    10011018:	00000013          	nop
    1001101c:	00000013          	nop
    10011020:	00000013          	nop
    10011024:	00000013          	nop
    10011028:	00000013          	nop
    1001102c:	00000013          	nop
    10011030:	00000013          	nop
    10011034:	00000013          	nop
    10011038:	00000013          	nop
    1001103c:	00000013          	nop

0000000010011040 <supervisor_trap_entry>:
    10011040:	a279                	j	100111ce <trap_entry>
    10011042:	0001                	nop
    10011044:	00000013          	nop
    10011048:	00000013          	nop
    1001104c:	00000013          	nop
    10011050:	00000013          	nop
    10011054:	00000013          	nop
    10011058:	00000013          	nop
    1001105c:	00000013          	nop
    10011060:	00000013          	nop
    10011064:	00000013          	nop
    10011068:	00000013          	nop
    1001106c:	00000013          	nop
    10011070:	00000013          	nop
    10011074:	00000013          	nop
    10011078:	00000013          	nop
    1001107c:	00000013          	nop

0000000010011080 <hypervisor_trap_entry>:
    10011080:	a2b9                	j	100111ce <trap_entry>
    10011082:	0001                	nop
    10011084:	00000013          	nop
    10011088:	00000013          	nop
    1001108c:	00000013          	nop
    10011090:	00000013          	nop
    10011094:	00000013          	nop
    10011098:	00000013          	nop
    1001109c:	00000013          	nop
    100110a0:	00000013          	nop
    100110a4:	00000013          	nop
    100110a8:	00000013          	nop
    100110ac:	00000013          	nop
    100110b0:	00000013          	nop
    100110b4:	00000013          	nop
    100110b8:	00000013          	nop
    100110bc:	00000013          	nop

00000000100110c0 <machine_trap_entry>:
    100110c0:	a239                	j	100111ce <trap_entry>
    100110c2:	0001                	nop
    100110c4:	00000013          	nop
    100110c8:	00000013          	nop
    100110cc:	00000013          	nop
    100110d0:	00000013          	nop
    100110d4:	00000013          	nop
    100110d8:	00000013          	nop
    100110dc:	00000013          	nop
    100110e0:	00000013          	nop
    100110e4:	00000013          	nop
    100110e8:	00000013          	nop
    100110ec:	00000013          	nop
    100110f0:	00000013          	nop
    100110f4:	00000013          	nop
    100110f8:	00000013          	nop
    100110fc:	00000013          	nop

0000000010011100 <_mstart>:
    10011100:	4081                	li	ra,0
    10011102:	4101                	li	sp,0
    10011104:	4181                	li	gp,0
    10011106:	4201                	li	tp,0
    10011108:	4281                	li	t0,0
    1001110a:	4301                	li	t1,0
    1001110c:	4381                	li	t2,0
    1001110e:	4401                	li	s0,0
    10011110:	4481                	li	s1,0
    10011112:	4501                	li	a0,0
    10011114:	4581                	li	a1,0
    10011116:	4601                	li	a2,0
    10011118:	4681                	li	a3,0
    1001111a:	4701                	li	a4,0
    1001111c:	4781                	li	a5,0
    1001111e:	4801                	li	a6,0
    10011120:	4881                	li	a7,0
    10011122:	4901                	li	s2,0
    10011124:	4981                	li	s3,0
    10011126:	4a01                	li	s4,0
    10011128:	4a81                	li	s5,0
    1001112a:	4b01                	li	s6,0
    1001112c:	4b81                	li	s7,0
    1001112e:	4c01                	li	s8,0
    10011130:	4c81                	li	s9,0
    10011132:	4d01                	li	s10,0
    10011134:	4d81                	li	s11,0
    10011136:	4e01                	li	t3,0
    10011138:	4e81                	li	t4,0
    1001113a:	4f01                	li	t5,0
    1001113c:	4f81                	li	t6,0
    1001113e:	00040197          	auipc	gp,0x40
    10011142:	9da18193          	addi	gp,gp,-1574 # 10050b18 <_gp>

0000000010011146 <init_bss>:
    10011146:	0003f517          	auipc	a0,0x3f
    1001114a:	1fa50513          	addi	a0,a0,506 # 10050340 <xStartContext>
    1001114e:	00058597          	auipc	a1,0x58
    10011152:	79a58593          	addi	a1,a1,1946 # 100698e8 <__bss_end>
    10011156:	4601                	li	a2,0
    10011158:	120000ef          	jal	ra,10011278 <fill_block>

000000001001115c <init_sbss>:
    1001115c:	0003f517          	auipc	a0,0x3f
    10011160:	1b450513          	addi	a0,a0,436 # 10050310 <pxCurrentTCB>
    10011164:	0003f597          	auipc	a1,0x3f
    10011168:	1b458593          	addi	a1,a1,436 # 10050318 <__sbss_end>
    1001116c:	4601                	li	a2,0
    1001116e:	10a000ef          	jal	ra,10011278 <fill_block>

0000000010011172 <init_sbss2>:
    10011172:	0003f517          	auipc	a0,0x3f
    10011176:	1c650513          	addi	a0,a0,454 # 10050338 <__data_end>
    1001117a:	0003f597          	auipc	a1,0x3f
    1001117e:	1be58593          	addi	a1,a1,446 # 10050338 <__data_end>
    10011182:	4601                	li	a2,0
    10011184:	0f4000ef          	jal	ra,10011278 <fill_block>

0000000010011188 <write_stack_pattern>:
    10011188:	00059517          	auipc	a0,0x59
    1001118c:	76050513          	addi	a0,a0,1888 # 1006a8e8 <_heap_end>
    10011190:	0005a597          	auipc	a1,0x5a
    10011194:	75858593          	addi	a1,a1,1880 # 1006b8e8 <__stack>
    10011198:	000ac637          	lui	a2,0xac
    1001119c:	abb6061b          	addiw	a2,a2,-1349
    100111a0:	0632                	slli	a2,a2,0xc
    100111a2:	bab60613          	addi	a2,a2,-1109 # abbab <_HEAP_SIZE+0xaabab>
    100111a6:	0d2000ef          	jal	ra,10011278 <fill_block>

00000000100111aa <init_stack>:
    100111aa:	0005a117          	auipc	sp,0x5a
    100111ae:	73e10113          	addi	sp,sp,1854 # 1006b8e8 <__stack>
    100111b2:	0f80406f          	j	100152aa <vSyscallInit>

00000000100111b6 <interrupt>:
    100111b6:	0012d293          	srli	t0,t0,0x1
    100111ba:	00028863          	beqz	t0,100111ca <softwareInterrupt>
    100111be:	6282                	ld	t0,0(sp)
    100111c0:	0121                	addi	sp,sp,8
    100111c2:	1000006f          	j	100112c2 <TIMER_CMP_INT>
    100111c6:	30200073          	mret

00000000100111ca <softwareInterrupt>:
    100111ca:	30200073          	mret

00000000100111ce <trap_entry>:
    100111ce:	1161                	addi	sp,sp,-8
    100111d0:	e016                	sd	t0,0(sp)
    100111d2:	342022f3          	csrr	t0,mcause
    100111d6:	fe02c0e3          	bltz	t0,100111b6 <interrupt>
    100111da:	6282                	ld	t0,0(sp)
    100111dc:	0121                	addi	sp,sp,8
    100111de:	f0810113          	addi	sp,sp,-248
    100111e2:	e406                	sd	ra,8(sp)
    100111e4:	e80a                	sd	sp,16(sp)
    100111e6:	ec0e                	sd	gp,24(sp)
    100111e8:	f012                	sd	tp,32(sp)
    100111ea:	f416                	sd	t0,40(sp)
    100111ec:	f81a                	sd	t1,48(sp)
    100111ee:	fc1e                	sd	t2,56(sp)
    100111f0:	e0a2                	sd	s0,64(sp)
    100111f2:	e4a6                	sd	s1,72(sp)
    100111f4:	e8aa                	sd	a0,80(sp)
    100111f6:	ecae                	sd	a1,88(sp)
    100111f8:	f0b2                	sd	a2,96(sp)
    100111fa:	f4b6                	sd	a3,104(sp)
    100111fc:	f8ba                	sd	a4,112(sp)
    100111fe:	fcbe                	sd	a5,120(sp)
    10011200:	e142                	sd	a6,128(sp)
    10011202:	e546                	sd	a7,136(sp)
    10011204:	e94a                	sd	s2,144(sp)
    10011206:	ed4e                	sd	s3,152(sp)
    10011208:	f152                	sd	s4,160(sp)
    1001120a:	f556                	sd	s5,168(sp)
    1001120c:	f95a                	sd	s6,176(sp)
    1001120e:	fd5e                	sd	s7,184(sp)
    10011210:	e1e2                	sd	s8,192(sp)
    10011212:	e5e6                	sd	s9,200(sp)
    10011214:	e9ea                	sd	s10,208(sp)
    10011216:	edee                	sd	s11,216(sp)
    10011218:	f1f2                	sd	t3,224(sp)
    1001121a:	f5f6                	sd	t4,232(sp)
    1001121c:	f9fa                	sd	t5,240(sp)
    1001121e:	fdfe                	sd	t6,248(sp)
    10011220:	34202573          	csrr	a0,mcause
    10011224:	341025f3          	csrr	a1,mepc
    10011228:	860a                	mv	a2,sp
    1001122a:	0a0040ef          	jal	ra,100152ca <ulSyscallTrap>
    1001122e:	34151073          	csrw	mepc,a0
    10011232:	60a2                	ld	ra,8(sp)
    10011234:	6142                	ld	sp,16(sp)
    10011236:	61e2                	ld	gp,24(sp)
    10011238:	7202                	ld	tp,32(sp)
    1001123a:	72a2                	ld	t0,40(sp)
    1001123c:	7342                	ld	t1,48(sp)
    1001123e:	73e2                	ld	t2,56(sp)
    10011240:	6406                	ld	s0,64(sp)
    10011242:	64a6                	ld	s1,72(sp)
    10011244:	6546                	ld	a0,80(sp)
    10011246:	65e6                	ld	a1,88(sp)
    10011248:	7606                	ld	a2,96(sp)
    1001124a:	76a6                	ld	a3,104(sp)
    1001124c:	7746                	ld	a4,112(sp)
    1001124e:	77e6                	ld	a5,120(sp)
    10011250:	680a                	ld	a6,128(sp)
    10011252:	68aa                	ld	a7,136(sp)
    10011254:	694a                	ld	s2,144(sp)
    10011256:	69ea                	ld	s3,152(sp)
    10011258:	7a0a                	ld	s4,160(sp)
    1001125a:	7aaa                	ld	s5,168(sp)
    1001125c:	7b4a                	ld	s6,176(sp)
    1001125e:	7bea                	ld	s7,184(sp)
    10011260:	6c0e                	ld	s8,192(sp)
    10011262:	6cae                	ld	s9,200(sp)
    10011264:	6d4e                	ld	s10,208(sp)
    10011266:	6dee                	ld	s11,216(sp)
    10011268:	7e0e                	ld	t3,224(sp)
    1001126a:	7eae                	ld	t4,232(sp)
    1001126c:	7f4e                	ld	t5,240(sp)
    1001126e:	7fee                	ld	t6,248(sp)
    10011270:	0f810113          	addi	sp,sp,248
    10011274:	30200073          	mret

0000000010011278 <fill_block>:
    10011278:	c110                	sw	a2,0(a0)
    1001127a:	00b57463          	bgeu	a0,a1,10011282 <fb_end>
    1001127e:	0511                	addi	a0,a0,4
    10011280:	bfe5                	j	10011278 <fill_block>

0000000010011282 <fb_end>:
    10011282:	8082                	ret
	...

00000000100112c2 <TIMER_CMP_INT>:
    100112c2:	7111                	addi	sp,sp,-256
    100112c4:	e006                	sd	ra,0(sp)
    100112c6:	e40a                	sd	sp,8(sp)
    100112c8:	e80e                	sd	gp,16(sp)
    100112ca:	ec12                	sd	tp,24(sp)
    100112cc:	f016                	sd	t0,32(sp)
    100112ce:	f41a                	sd	t1,40(sp)
    100112d0:	f81e                	sd	t2,48(sp)
    100112d2:	fc22                	sd	s0,56(sp)
    100112d4:	e0a6                	sd	s1,64(sp)
    100112d6:	e4aa                	sd	a0,72(sp)
    100112d8:	e8ae                	sd	a1,80(sp)
    100112da:	ecb2                	sd	a2,88(sp)
    100112dc:	f0b6                	sd	a3,96(sp)
    100112de:	f4ba                	sd	a4,104(sp)
    100112e0:	f8be                	sd	a5,112(sp)
    100112e2:	fcc2                	sd	a6,120(sp)
    100112e4:	e146                	sd	a7,128(sp)
    100112e6:	e54a                	sd	s2,136(sp)
    100112e8:	e94e                	sd	s3,144(sp)
    100112ea:	ed52                	sd	s4,152(sp)
    100112ec:	f156                	sd	s5,160(sp)
    100112ee:	f55a                	sd	s6,168(sp)
    100112f0:	f95e                	sd	s7,176(sp)
    100112f2:	fd62                	sd	s8,184(sp)
    100112f4:	e1e6                	sd	s9,192(sp)
    100112f6:	e5ea                	sd	s10,200(sp)
    100112f8:	e9ee                	sd	s11,208(sp)
    100112fa:	edf2                	sd	t3,216(sp)
    100112fc:	f1f6                	sd	t4,224(sp)
    100112fe:	f5fa                	sd	t5,232(sp)
    10011300:	f9fe                	sd	t6,240(sp)
    10011302:	0003f297          	auipc	t0,0x3f
    10011306:	00e2b283          	ld	t0,14(t0) # 10050310 <pxCurrentTCB>
    1001130a:	0022b023          	sd	sp,0(t0)
    1001130e:	341022f3          	csrr	t0,mepc
    10011312:	fd96                	sd	t0,248(sp)
    10011314:	308000ef          	jal	ra,1001161c <vPortSysTickHandler>
    10011318:	0003f117          	auipc	sp,0x3f
    1001131c:	ff813103          	ld	sp,-8(sp) # 10050310 <pxCurrentTCB>
    10011320:	6102                	ld	sp,0(sp)
    10011322:	72ee                	ld	t0,248(sp)
    10011324:	34129073          	csrw	mepc,t0
    10011328:	03000293          	li	t0,48
    1001132c:	3002a073          	csrs	mstatus,t0
    10011330:	6082                	ld	ra,0(sp)
    10011332:	6262                	ld	tp,24(sp)
    10011334:	7282                	ld	t0,32(sp)
    10011336:	7322                	ld	t1,40(sp)
    10011338:	73c2                	ld	t2,48(sp)
    1001133a:	7462                	ld	s0,56(sp)
    1001133c:	6486                	ld	s1,64(sp)
    1001133e:	6526                	ld	a0,72(sp)
    10011340:	65c6                	ld	a1,80(sp)
    10011342:	6666                	ld	a2,88(sp)
    10011344:	7686                	ld	a3,96(sp)
    10011346:	7726                	ld	a4,104(sp)
    10011348:	77c6                	ld	a5,112(sp)
    1001134a:	7866                	ld	a6,120(sp)
    1001134c:	688a                	ld	a7,128(sp)
    1001134e:	692a                	ld	s2,136(sp)
    10011350:	69ca                	ld	s3,144(sp)
    10011352:	6a6a                	ld	s4,152(sp)
    10011354:	7a8a                	ld	s5,160(sp)
    10011356:	7b2a                	ld	s6,168(sp)
    10011358:	7bca                	ld	s7,176(sp)
    1001135a:	7c6a                	ld	s8,184(sp)
    1001135c:	6c8e                	ld	s9,192(sp)
    1001135e:	6d2e                	ld	s10,200(sp)
    10011360:	6dce                	ld	s11,208(sp)
    10011362:	6e6e                	ld	t3,216(sp)
    10011364:	7e8e                	ld	t4,224(sp)
    10011366:	7f2e                	ld	t5,232(sp)
    10011368:	7fce                	ld	t6,240(sp)
    1001136a:	6111                	addi	sp,sp,256
    1001136c:	30200073          	mret

0000000010011370 <xPortStartScheduler>:
    10011370:	0003f297          	auipc	t0,0x3f
    10011374:	fd028293          	addi	t0,t0,-48 # 10050340 <xStartContext>
    10011378:	0012b023          	sd	ra,0(t0)
    1001137c:	0022b423          	sd	sp,8(t0)
    10011380:	0032b823          	sd	gp,16(t0)
    10011384:	0042bc23          	sd	tp,24(t0)
    10011388:	0252b023          	sd	t0,32(t0)
    1001138c:	0262b423          	sd	t1,40(t0)
    10011390:	0272b823          	sd	t2,48(t0)
    10011394:	0282bc23          	sd	s0,56(t0)
    10011398:	0492b023          	sd	s1,64(t0)
    1001139c:	04a2b423          	sd	a0,72(t0)
    100113a0:	04b2b823          	sd	a1,80(t0)
    100113a4:	04c2bc23          	sd	a2,88(t0)
    100113a8:	06d2b023          	sd	a3,96(t0)
    100113ac:	06e2b423          	sd	a4,104(t0)
    100113b0:	06f2b823          	sd	a5,112(t0)
    100113b4:	0702bc23          	sd	a6,120(t0)
    100113b8:	0912b023          	sd	a7,128(t0)
    100113bc:	0922b423          	sd	s2,136(t0)
    100113c0:	0932b823          	sd	s3,144(t0)
    100113c4:	0942bc23          	sd	s4,152(t0)
    100113c8:	0b52b023          	sd	s5,160(t0)
    100113cc:	0b62b423          	sd	s6,168(t0)
    100113d0:	0b72b823          	sd	s7,176(t0)
    100113d4:	0b82bc23          	sd	s8,184(t0)
    100113d8:	0d92b023          	sd	s9,192(t0)
    100113dc:	0da2b423          	sd	s10,200(t0)
    100113e0:	0db2b823          	sd	s11,208(t0)
    100113e4:	0dc2bc23          	sd	t3,216(t0)
    100113e8:	0fd2b023          	sd	t4,224(t0)
    100113ec:	0fe2b423          	sd	t5,232(t0)
    100113f0:	0ff2b823          	sd	t6,240(t0)
    100113f4:	190000ef          	jal	ra,10011584 <vPortSetupTimer>
    100113f8:	0003f117          	auipc	sp,0x3f
    100113fc:	f1813103          	ld	sp,-232(sp) # 10050310 <pxCurrentTCB>
    10011400:	6102                	ld	sp,0(sp)
    10011402:	72ee                	ld	t0,248(sp)
    10011404:	34129073          	csrw	mepc,t0
    10011408:	03000293          	li	t0,48
    1001140c:	3002a073          	csrs	mstatus,t0
    10011410:	6082                	ld	ra,0(sp)
    10011412:	6262                	ld	tp,24(sp)
    10011414:	7282                	ld	t0,32(sp)
    10011416:	7322                	ld	t1,40(sp)
    10011418:	73c2                	ld	t2,48(sp)
    1001141a:	7462                	ld	s0,56(sp)
    1001141c:	6486                	ld	s1,64(sp)
    1001141e:	6526                	ld	a0,72(sp)
    10011420:	65c6                	ld	a1,80(sp)
    10011422:	6666                	ld	a2,88(sp)
    10011424:	7686                	ld	a3,96(sp)
    10011426:	7726                	ld	a4,104(sp)
    10011428:	77c6                	ld	a5,112(sp)
    1001142a:	7866                	ld	a6,120(sp)
    1001142c:	688a                	ld	a7,128(sp)
    1001142e:	692a                	ld	s2,136(sp)
    10011430:	69ca                	ld	s3,144(sp)
    10011432:	6a6a                	ld	s4,152(sp)
    10011434:	7a8a                	ld	s5,160(sp)
    10011436:	7b2a                	ld	s6,168(sp)
    10011438:	7bca                	ld	s7,176(sp)
    1001143a:	7c6a                	ld	s8,184(sp)
    1001143c:	6c8e                	ld	s9,192(sp)
    1001143e:	6d2e                	ld	s10,200(sp)
    10011440:	6dce                	ld	s11,208(sp)
    10011442:	6e6e                	ld	t3,216(sp)
    10011444:	7e8e                	ld	t4,224(sp)
    10011446:	7f2e                	ld	t5,232(sp)
    10011448:	7fce                	ld	t6,240(sp)
    1001144a:	6111                	addi	sp,sp,256
    1001144c:	30200073          	mret

0000000010011450 <vPortEndScheduler>:
    10011450:	0003f297          	auipc	t0,0x3f
    10011454:	ef028293          	addi	t0,t0,-272 # 10050340 <xStartContext>
    10011458:	0002b083          	ld	ra,0(t0)
    1001145c:	0082b103          	ld	sp,8(t0)
    10011460:	0102b183          	ld	gp,16(t0)
    10011464:	0182b203          	ld	tp,24(t0)
    10011468:	0202b283          	ld	t0,32(t0)
    1001146c:	0282b303          	ld	t1,40(t0)
    10011470:	0302b383          	ld	t2,48(t0)
    10011474:	0382b403          	ld	s0,56(t0)
    10011478:	0402b483          	ld	s1,64(t0)
    1001147c:	0482b503          	ld	a0,72(t0)
    10011480:	0502b583          	ld	a1,80(t0)
    10011484:	0582b603          	ld	a2,88(t0)
    10011488:	0602b683          	ld	a3,96(t0)
    1001148c:	0682b703          	ld	a4,104(t0)
    10011490:	0702b783          	ld	a5,112(t0)
    10011494:	0782b803          	ld	a6,120(t0)
    10011498:	0802b883          	ld	a7,128(t0)
    1001149c:	0882b903          	ld	s2,136(t0)
    100114a0:	0902b983          	ld	s3,144(t0)
    100114a4:	0982ba03          	ld	s4,152(t0)
    100114a8:	0a02ba83          	ld	s5,160(t0)
    100114ac:	0a82bb03          	ld	s6,168(t0)
    100114b0:	0b02bb83          	ld	s7,176(t0)
    100114b4:	0b82bc03          	ld	s8,184(t0)
    100114b8:	0c02bc83          	ld	s9,192(t0)
    100114bc:	0c82bd03          	ld	s10,200(t0)
    100114c0:	0d02bd83          	ld	s11,208(t0)
    100114c4:	0d82be03          	ld	t3,216(t0)
    100114c8:	0e02be83          	ld	t4,224(t0)
    100114cc:	1382bf03          	ld	t5,312(t0)
    100114d0:	0f02bf83          	ld	t6,240(t0)
    100114d4:	8082                	ret

00000000100114d6 <vPortYield>:
    100114d6:	7111                	addi	sp,sp,-256
    100114d8:	e006                	sd	ra,0(sp)
    100114da:	e40a                	sd	sp,8(sp)
    100114dc:	e80e                	sd	gp,16(sp)
    100114de:	ec12                	sd	tp,24(sp)
    100114e0:	f016                	sd	t0,32(sp)
    100114e2:	f41a                	sd	t1,40(sp)
    100114e4:	f81e                	sd	t2,48(sp)
    100114e6:	fc22                	sd	s0,56(sp)
    100114e8:	e0a6                	sd	s1,64(sp)
    100114ea:	e4aa                	sd	a0,72(sp)
    100114ec:	e8ae                	sd	a1,80(sp)
    100114ee:	ecb2                	sd	a2,88(sp)
    100114f0:	f0b6                	sd	a3,96(sp)
    100114f2:	f4ba                	sd	a4,104(sp)
    100114f4:	f8be                	sd	a5,112(sp)
    100114f6:	fcc2                	sd	a6,120(sp)
    100114f8:	e146                	sd	a7,128(sp)
    100114fa:	e54a                	sd	s2,136(sp)
    100114fc:	e94e                	sd	s3,144(sp)
    100114fe:	ed52                	sd	s4,152(sp)
    10011500:	f156                	sd	s5,160(sp)
    10011502:	f55a                	sd	s6,168(sp)
    10011504:	f95e                	sd	s7,176(sp)
    10011506:	fd62                	sd	s8,184(sp)
    10011508:	e1e6                	sd	s9,192(sp)
    1001150a:	e5ea                	sd	s10,200(sp)
    1001150c:	e9ee                	sd	s11,208(sp)
    1001150e:	edf2                	sd	t3,216(sp)
    10011510:	f1f6                	sd	t4,224(sp)
    10011512:	f5fa                	sd	t5,232(sp)
    10011514:	f9fe                	sd	t6,240(sp)
    10011516:	0003f297          	auipc	t0,0x3f
    1001151a:	dfa2b283          	ld	t0,-518(t0) # 10050310 <pxCurrentTCB>
    1001151e:	0022b023          	sd	sp,0(t0)
    10011522:	fd86                	sd	ra,248(sp)
    10011524:	40f010ef          	jal	ra,10013132 <vTaskSwitchContext>
    10011528:	0003f117          	auipc	sp,0x3f
    1001152c:	de813103          	ld	sp,-536(sp) # 10050310 <pxCurrentTCB>
    10011530:	6102                	ld	sp,0(sp)
    10011532:	72ee                	ld	t0,248(sp)
    10011534:	34129073          	csrw	mepc,t0
    10011538:	03000293          	li	t0,48
    1001153c:	3002a073          	csrs	mstatus,t0
    10011540:	6082                	ld	ra,0(sp)
    10011542:	6262                	ld	tp,24(sp)
    10011544:	7282                	ld	t0,32(sp)
    10011546:	7322                	ld	t1,40(sp)
    10011548:	73c2                	ld	t2,48(sp)
    1001154a:	7462                	ld	s0,56(sp)
    1001154c:	6486                	ld	s1,64(sp)
    1001154e:	6526                	ld	a0,72(sp)
    10011550:	65c6                	ld	a1,80(sp)
    10011552:	6666                	ld	a2,88(sp)
    10011554:	7686                	ld	a3,96(sp)
    10011556:	7726                	ld	a4,104(sp)
    10011558:	77c6                	ld	a5,112(sp)
    1001155a:	7866                	ld	a6,120(sp)
    1001155c:	688a                	ld	a7,128(sp)
    1001155e:	692a                	ld	s2,136(sp)
    10011560:	69ca                	ld	s3,144(sp)
    10011562:	6a6a                	ld	s4,152(sp)
    10011564:	7a8a                	ld	s5,160(sp)
    10011566:	7b2a                	ld	s6,168(sp)
    10011568:	7bca                	ld	s7,176(sp)
    1001156a:	7c6a                	ld	s8,184(sp)
    1001156c:	6c8e                	ld	s9,192(sp)
    1001156e:	6d2e                	ld	s10,200(sp)
    10011570:	6dce                	ld	s11,208(sp)
    10011572:	6e6e                	ld	t3,216(sp)
    10011574:	7e8e                	ld	t4,224(sp)
    10011576:	7f2e                	ld	t5,232(sp)
    10011578:	7fce                	ld	t6,240(sp)
    1001157a:	6111                	addi	sp,sp,256
    1001157c:	30200073          	mret

0000000010011580 <prvSetNextTimerInterrupt>:
    10011580:	0001                	nop
    10011582:	8082                	ret

0000000010011584 <vPortSetupTimer>:
    10011584:	08000793          	li	a5,128
    10011588:	3047a073          	csrs	mie,a5
    1001158c:	0001                	nop
    1001158e:	8082                	ret

0000000010011590 <prvTaskExitError>:
    10011590:	100507b7          	lui	a5,0x10050
    10011594:	3287b703          	ld	a4,808(a5) # 10050328 <uxCriticalNesting>
    10011598:	57fd                	li	a5,-1
    1001159a:	00f70563          	beq	a4,a5,100115a4 <prvTaskExitError+0x14>
    1001159e:	3000f073          	csrci	mstatus,1
    100115a2:	a001                	j	100115a2 <prvTaskExitError+0x12>
    100115a4:	3000f073          	csrci	mstatus,1
    100115a8:	a001                	j	100115a8 <prvTaskExitError+0x18>

00000000100115aa <vPortClearInterruptMask>:
    100115aa:	1141                	addi	sp,sp,-16
    100115ac:	87aa                	mv	a5,a0
    100115ae:	c63e                	sw	a5,12(sp)
    100115b0:	47b2                	lw	a5,12(sp)
    100115b2:	30479073          	csrw	mie,a5
    100115b6:	0001                	nop
    100115b8:	0141                	addi	sp,sp,16
    100115ba:	8082                	ret

00000000100115bc <vPortSetInterruptMask>:
    100115bc:	1141                	addi	sp,sp,-16
    100115be:	304027f3          	csrr	a5,mie
    100115c2:	c63e                	sw	a5,12(sp)
    100115c4:	3043f073          	csrci	mie,7
    100115c8:	47b2                	lw	a5,12(sp)
    100115ca:	853e                	mv	a0,a5
    100115cc:	0141                	addi	sp,sp,16
    100115ce:	8082                	ret

00000000100115d0 <pxPortInitialiseStack>:
    100115d0:	1101                	addi	sp,sp,-32
    100115d2:	ec2a                	sd	a0,24(sp)
    100115d4:	e82e                	sd	a1,16(sp)
    100115d6:	e432                	sd	a2,8(sp)
    100115d8:	67e2                	ld	a5,24(sp)
    100115da:	17e1                	addi	a5,a5,-8
    100115dc:	ec3e                	sd	a5,24(sp)
    100115de:	6742                	ld	a4,16(sp)
    100115e0:	67e2                	ld	a5,24(sp)
    100115e2:	e398                	sd	a4,0(a5)
    100115e4:	67e2                	ld	a5,24(sp)
    100115e6:	f5078793          	addi	a5,a5,-176
    100115ea:	ec3e                	sd	a5,24(sp)
    100115ec:	6722                	ld	a4,8(sp)
    100115ee:	67e2                	ld	a5,24(sp)
    100115f0:	e398                	sd	a4,0(a5)
    100115f2:	67e2                	ld	a5,24(sp)
    100115f4:	fd078793          	addi	a5,a5,-48
    100115f8:	ec3e                	sd	a5,24(sp)
    100115fa:	878e                	mv	a5,gp
    100115fc:	873e                	mv	a4,a5
    100115fe:	67e2                	ld	a5,24(sp)
    10011600:	e398                	sd	a4,0(a5)
    10011602:	67e2                	ld	a5,24(sp)
    10011604:	17a1                	addi	a5,a5,-24
    10011606:	ec3e                	sd	a5,24(sp)
    10011608:	100117b7          	lui	a5,0x10011
    1001160c:	59078713          	addi	a4,a5,1424 # 10011590 <prvTaskExitError>
    10011610:	67e2                	ld	a5,24(sp)
    10011612:	e398                	sd	a4,0(a5)
    10011614:	67e2                	ld	a5,24(sp)
    10011616:	853e                	mv	a0,a5
    10011618:	6105                	addi	sp,sp,32
    1001161a:	8082                	ret

000000001001161c <vPortSysTickHandler>:
    1001161c:	1141                	addi	sp,sp,-16
    1001161e:	e406                	sd	ra,8(sp)
    10011620:	f61ff0ef          	jal	ra,10011580 <prvSetNextTimerInterrupt>
    10011624:	15f010ef          	jal	ra,10012f82 <xTaskIncrementTick>
    10011628:	87aa                	mv	a5,a0
    1001162a:	c399                	beqz	a5,10011630 <vPortSysTickHandler+0x14>
    1001162c:	307010ef          	jal	ra,10013132 <vTaskSwitchContext>
    10011630:	0001                	nop
    10011632:	60a2                	ld	ra,8(sp)
    10011634:	0141                	addi	sp,sp,16
    10011636:	8082                	ret

0000000010011638 <vListInitialise>:
    10011638:	1141                	addi	sp,sp,-16
    1001163a:	e42a                	sd	a0,8(sp)
    1001163c:	67a2                	ld	a5,8(sp)
    1001163e:	01078713          	addi	a4,a5,16
    10011642:	67a2                	ld	a5,8(sp)
    10011644:	e798                	sd	a4,8(a5)
    10011646:	67a2                	ld	a5,8(sp)
    10011648:	577d                	li	a4,-1
    1001164a:	cb98                	sw	a4,16(a5)
    1001164c:	67a2                	ld	a5,8(sp)
    1001164e:	01078713          	addi	a4,a5,16
    10011652:	67a2                	ld	a5,8(sp)
    10011654:	ef98                	sd	a4,24(a5)
    10011656:	67a2                	ld	a5,8(sp)
    10011658:	01078713          	addi	a4,a5,16
    1001165c:	67a2                	ld	a5,8(sp)
    1001165e:	f398                	sd	a4,32(a5)
    10011660:	67a2                	ld	a5,8(sp)
    10011662:	0007b023          	sd	zero,0(a5)
    10011666:	0001                	nop
    10011668:	0141                	addi	sp,sp,16
    1001166a:	8082                	ret

000000001001166c <vListInitialiseItem>:
    1001166c:	1141                	addi	sp,sp,-16
    1001166e:	e42a                	sd	a0,8(sp)
    10011670:	67a2                	ld	a5,8(sp)
    10011672:	0207b023          	sd	zero,32(a5)
    10011676:	0001                	nop
    10011678:	0141                	addi	sp,sp,16
    1001167a:	8082                	ret

000000001001167c <vListInsertEnd>:
    1001167c:	1101                	addi	sp,sp,-32
    1001167e:	e42a                	sd	a0,8(sp)
    10011680:	e02e                	sd	a1,0(sp)
    10011682:	67a2                	ld	a5,8(sp)
    10011684:	679c                	ld	a5,8(a5)
    10011686:	ec3e                	sd	a5,24(sp)
    10011688:	6782                	ld	a5,0(sp)
    1001168a:	6762                	ld	a4,24(sp)
    1001168c:	e798                	sd	a4,8(a5)
    1001168e:	67e2                	ld	a5,24(sp)
    10011690:	6b98                	ld	a4,16(a5)
    10011692:	6782                	ld	a5,0(sp)
    10011694:	eb98                	sd	a4,16(a5)
    10011696:	67e2                	ld	a5,24(sp)
    10011698:	6b9c                	ld	a5,16(a5)
    1001169a:	6702                	ld	a4,0(sp)
    1001169c:	e798                	sd	a4,8(a5)
    1001169e:	67e2                	ld	a5,24(sp)
    100116a0:	6702                	ld	a4,0(sp)
    100116a2:	eb98                	sd	a4,16(a5)
    100116a4:	6782                	ld	a5,0(sp)
    100116a6:	6722                	ld	a4,8(sp)
    100116a8:	f398                	sd	a4,32(a5)
    100116aa:	67a2                	ld	a5,8(sp)
    100116ac:	639c                	ld	a5,0(a5)
    100116ae:	00178713          	addi	a4,a5,1
    100116b2:	67a2                	ld	a5,8(sp)
    100116b4:	e398                	sd	a4,0(a5)
    100116b6:	0001                	nop
    100116b8:	6105                	addi	sp,sp,32
    100116ba:	8082                	ret

00000000100116bc <vListInsert>:
    100116bc:	1101                	addi	sp,sp,-32
    100116be:	e42a                	sd	a0,8(sp)
    100116c0:	e02e                	sd	a1,0(sp)
    100116c2:	6782                	ld	a5,0(sp)
    100116c4:	439c                	lw	a5,0(a5)
    100116c6:	ca3e                	sw	a5,20(sp)
    100116c8:	47d2                	lw	a5,20(sp)
    100116ca:	0007871b          	sext.w	a4,a5
    100116ce:	57fd                	li	a5,-1
    100116d0:	00f71663          	bne	a4,a5,100116dc <vListInsert+0x20>
    100116d4:	67a2                	ld	a5,8(sp)
    100116d6:	739c                	ld	a5,32(a5)
    100116d8:	ec3e                	sd	a5,24(sp)
    100116da:	a839                	j	100116f8 <vListInsert+0x3c>
    100116dc:	67a2                	ld	a5,8(sp)
    100116de:	07c1                	addi	a5,a5,16
    100116e0:	ec3e                	sd	a5,24(sp)
    100116e2:	a021                	j	100116ea <vListInsert+0x2e>
    100116e4:	67e2                	ld	a5,24(sp)
    100116e6:	679c                	ld	a5,8(a5)
    100116e8:	ec3e                	sd	a5,24(sp)
    100116ea:	67e2                	ld	a5,24(sp)
    100116ec:	679c                	ld	a5,8(a5)
    100116ee:	4398                	lw	a4,0(a5)
    100116f0:	47d2                	lw	a5,20(sp)
    100116f2:	2781                	sext.w	a5,a5
    100116f4:	fee7f8e3          	bgeu	a5,a4,100116e4 <vListInsert+0x28>
    100116f8:	67e2                	ld	a5,24(sp)
    100116fa:	6798                	ld	a4,8(a5)
    100116fc:	6782                	ld	a5,0(sp)
    100116fe:	e798                	sd	a4,8(a5)
    10011700:	6782                	ld	a5,0(sp)
    10011702:	679c                	ld	a5,8(a5)
    10011704:	6702                	ld	a4,0(sp)
    10011706:	eb98                	sd	a4,16(a5)
    10011708:	6782                	ld	a5,0(sp)
    1001170a:	6762                	ld	a4,24(sp)
    1001170c:	eb98                	sd	a4,16(a5)
    1001170e:	67e2                	ld	a5,24(sp)
    10011710:	6702                	ld	a4,0(sp)
    10011712:	e798                	sd	a4,8(a5)
    10011714:	6782                	ld	a5,0(sp)
    10011716:	6722                	ld	a4,8(sp)
    10011718:	f398                	sd	a4,32(a5)
    1001171a:	67a2                	ld	a5,8(sp)
    1001171c:	639c                	ld	a5,0(a5)
    1001171e:	00178713          	addi	a4,a5,1
    10011722:	67a2                	ld	a5,8(sp)
    10011724:	e398                	sd	a4,0(a5)
    10011726:	0001                	nop
    10011728:	6105                	addi	sp,sp,32
    1001172a:	8082                	ret

000000001001172c <uxListRemove>:
    1001172c:	1101                	addi	sp,sp,-32
    1001172e:	e42a                	sd	a0,8(sp)
    10011730:	67a2                	ld	a5,8(sp)
    10011732:	739c                	ld	a5,32(a5)
    10011734:	ec3e                	sd	a5,24(sp)
    10011736:	67a2                	ld	a5,8(sp)
    10011738:	679c                	ld	a5,8(a5)
    1001173a:	6722                	ld	a4,8(sp)
    1001173c:	6b18                	ld	a4,16(a4)
    1001173e:	eb98                	sd	a4,16(a5)
    10011740:	67a2                	ld	a5,8(sp)
    10011742:	6b9c                	ld	a5,16(a5)
    10011744:	6722                	ld	a4,8(sp)
    10011746:	6718                	ld	a4,8(a4)
    10011748:	e798                	sd	a4,8(a5)
    1001174a:	67e2                	ld	a5,24(sp)
    1001174c:	679c                	ld	a5,8(a5)
    1001174e:	6722                	ld	a4,8(sp)
    10011750:	00f71663          	bne	a4,a5,1001175c <uxListRemove+0x30>
    10011754:	67a2                	ld	a5,8(sp)
    10011756:	6b98                	ld	a4,16(a5)
    10011758:	67e2                	ld	a5,24(sp)
    1001175a:	e798                	sd	a4,8(a5)
    1001175c:	67a2                	ld	a5,8(sp)
    1001175e:	0207b023          	sd	zero,32(a5)
    10011762:	67e2                	ld	a5,24(sp)
    10011764:	639c                	ld	a5,0(a5)
    10011766:	fff78713          	addi	a4,a5,-1
    1001176a:	67e2                	ld	a5,24(sp)
    1001176c:	e398                	sd	a4,0(a5)
    1001176e:	67e2                	ld	a5,24(sp)
    10011770:	639c                	ld	a5,0(a5)
    10011772:	853e                	mv	a0,a5
    10011774:	6105                	addi	sp,sp,32
    10011776:	8082                	ret

0000000010011778 <xQueueGenericReset>:
    10011778:	7179                	addi	sp,sp,-48
    1001177a:	f406                	sd	ra,40(sp)
    1001177c:	e42a                	sd	a0,8(sp)
    1001177e:	e02e                	sd	a1,0(sp)
    10011780:	67a2                	ld	a5,8(sp)
    10011782:	ec3e                	sd	a5,24(sp)
    10011784:	67e2                	ld	a5,24(sp)
    10011786:	e781                	bnez	a5,1001178e <xQueueGenericReset+0x16>
    10011788:	3000f073          	csrci	mstatus,1
    1001178c:	a001                	j	1001178c <xQueueGenericReset+0x14>
    1001178e:	5b2020ef          	jal	ra,10013d40 <vTaskEnterCritical>
    10011792:	67e2                	ld	a5,24(sp)
    10011794:	6398                	ld	a4,0(a5)
    10011796:	67e2                	ld	a5,24(sp)
    10011798:	7fb4                	ld	a3,120(a5)
    1001179a:	67e2                	ld	a5,24(sp)
    1001179c:	63dc                	ld	a5,128(a5)
    1001179e:	02f687b3          	mul	a5,a3,a5
    100117a2:	973e                	add	a4,a4,a5
    100117a4:	67e2                	ld	a5,24(sp)
    100117a6:	e798                	sd	a4,8(a5)
    100117a8:	67e2                	ld	a5,24(sp)
    100117aa:	0607b823          	sd	zero,112(a5)
    100117ae:	67e2                	ld	a5,24(sp)
    100117b0:	6398                	ld	a4,0(a5)
    100117b2:	67e2                	ld	a5,24(sp)
    100117b4:	eb98                	sd	a4,16(a5)
    100117b6:	67e2                	ld	a5,24(sp)
    100117b8:	6398                	ld	a4,0(a5)
    100117ba:	67e2                	ld	a5,24(sp)
    100117bc:	7fbc                	ld	a5,120(a5)
    100117be:	fff78693          	addi	a3,a5,-1
    100117c2:	67e2                	ld	a5,24(sp)
    100117c4:	63dc                	ld	a5,128(a5)
    100117c6:	02f687b3          	mul	a5,a3,a5
    100117ca:	973e                	add	a4,a4,a5
    100117cc:	67e2                	ld	a5,24(sp)
    100117ce:	ef98                	sd	a4,24(a5)
    100117d0:	67e2                	ld	a5,24(sp)
    100117d2:	577d                	li	a4,-1
    100117d4:	e7d8                	sd	a4,136(a5)
    100117d6:	67e2                	ld	a5,24(sp)
    100117d8:	577d                	li	a4,-1
    100117da:	ebd8                	sd	a4,144(a5)
    100117dc:	6782                	ld	a5,0(sp)
    100117de:	e38d                	bnez	a5,10011800 <xQueueGenericReset+0x88>
    100117e0:	67e2                	ld	a5,24(sp)
    100117e2:	739c                	ld	a5,32(a5)
    100117e4:	cb95                	beqz	a5,10011818 <xQueueGenericReset+0xa0>
    100117e6:	67e2                	ld	a5,24(sp)
    100117e8:	02078793          	addi	a5,a5,32
    100117ec:	853e                	mv	a0,a5
    100117ee:	407010ef          	jal	ra,100133f4 <xTaskRemoveFromEventList>
    100117f2:	872a                	mv	a4,a0
    100117f4:	4785                	li	a5,1
    100117f6:	02f71163          	bne	a4,a5,10011818 <xQueueGenericReset+0xa0>
    100117fa:	cddff0ef          	jal	ra,100114d6 <vPortYield>
    100117fe:	a829                	j	10011818 <xQueueGenericReset+0xa0>
    10011800:	67e2                	ld	a5,24(sp)
    10011802:	02078793          	addi	a5,a5,32
    10011806:	853e                	mv	a0,a5
    10011808:	e31ff0ef          	jal	ra,10011638 <vListInitialise>
    1001180c:	67e2                	ld	a5,24(sp)
    1001180e:	04878793          	addi	a5,a5,72
    10011812:	853e                	mv	a0,a5
    10011814:	e25ff0ef          	jal	ra,10011638 <vListInitialise>
    10011818:	550020ef          	jal	ra,10013d68 <vTaskExitCritical>
    1001181c:	4785                	li	a5,1
    1001181e:	853e                	mv	a0,a5
    10011820:	70a2                	ld	ra,40(sp)
    10011822:	6145                	addi	sp,sp,48
    10011824:	8082                	ret

0000000010011826 <xQueueGenericCreate>:
    10011826:	715d                	addi	sp,sp,-80
    10011828:	e486                	sd	ra,72(sp)
    1001182a:	ec2a                	sd	a0,24(sp)
    1001182c:	e82e                	sd	a1,16(sp)
    1001182e:	87b2                	mv	a5,a2
    10011830:	00f107a3          	sb	a5,15(sp)
    10011834:	f802                	sd	zero,48(sp)
    10011836:	67e2                	ld	a5,24(sp)
    10011838:	e781                	bnez	a5,10011840 <xQueueGenericCreate+0x1a>
    1001183a:	3000f073          	csrci	mstatus,1
    1001183e:	a001                	j	1001183e <xQueueGenericCreate+0x18>
    10011840:	67c2                	ld	a5,16(sp)
    10011842:	e399                	bnez	a5,10011848 <xQueueGenericCreate+0x22>
    10011844:	fc02                	sd	zero,56(sp)
    10011846:	a039                	j	10011854 <xQueueGenericCreate+0x2e>
    10011848:	6762                	ld	a4,24(sp)
    1001184a:	67c2                	ld	a5,16(sp)
    1001184c:	02f707b3          	mul	a5,a4,a5
    10011850:	0785                	addi	a5,a5,1
    10011852:	fc3e                	sd	a5,56(sp)
    10011854:	77e2                	ld	a5,56(sp)
    10011856:	0a878793          	addi	a5,a5,168
    1001185a:	853e                	mv	a0,a5
    1001185c:	794030ef          	jal	ra,10014ff0 <pvPortMalloc>
    10011860:	f42a                	sd	a0,40(sp)
    10011862:	77a2                	ld	a5,40(sp)
    10011864:	cf8d                	beqz	a5,1001189e <xQueueGenericCreate+0x78>
    10011866:	67c2                	ld	a5,16(sp)
    10011868:	e789                	bnez	a5,10011872 <xQueueGenericCreate+0x4c>
    1001186a:	77a2                	ld	a5,40(sp)
    1001186c:	7722                	ld	a4,40(sp)
    1001186e:	e398                	sd	a4,0(a5)
    10011870:	a031                	j	1001187c <xQueueGenericCreate+0x56>
    10011872:	77a2                	ld	a5,40(sp)
    10011874:	0a878713          	addi	a4,a5,168
    10011878:	77a2                	ld	a5,40(sp)
    1001187a:	e398                	sd	a4,0(a5)
    1001187c:	77a2                	ld	a5,40(sp)
    1001187e:	6762                	ld	a4,24(sp)
    10011880:	ffb8                	sd	a4,120(a5)
    10011882:	77a2                	ld	a5,40(sp)
    10011884:	6742                	ld	a4,16(sp)
    10011886:	e3d8                	sd	a4,128(a5)
    10011888:	4585                	li	a1,1
    1001188a:	7522                	ld	a0,40(sp)
    1001188c:	eedff0ef          	jal	ra,10011778 <xQueueGenericReset>
    10011890:	77a2                	ld	a5,40(sp)
    10011892:	00f14703          	lbu	a4,15(sp)
    10011896:	0ae78023          	sb	a4,160(a5)
    1001189a:	77a2                	ld	a5,40(sp)
    1001189c:	f83e                	sd	a5,48(sp)
    1001189e:	77c2                	ld	a5,48(sp)
    100118a0:	e781                	bnez	a5,100118a8 <xQueueGenericCreate+0x82>
    100118a2:	3000f073          	csrci	mstatus,1
    100118a6:	a001                	j	100118a6 <xQueueGenericCreate+0x80>
    100118a8:	77c2                	ld	a5,48(sp)
    100118aa:	853e                	mv	a0,a5
    100118ac:	60a6                	ld	ra,72(sp)
    100118ae:	6161                	addi	sp,sp,80
    100118b0:	8082                	ret

00000000100118b2 <xQueueCreateMutex>:
    100118b2:	7179                	addi	sp,sp,-48
    100118b4:	f406                	sd	ra,40(sp)
    100118b6:	87aa                	mv	a5,a0
    100118b8:	00f107a3          	sb	a5,15(sp)
    100118bc:	0a800513          	li	a0,168
    100118c0:	730030ef          	jal	ra,10014ff0 <pvPortMalloc>
    100118c4:	ec2a                	sd	a0,24(sp)
    100118c6:	67e2                	ld	a5,24(sp)
    100118c8:	c3bd                	beqz	a5,1001192e <xQueueCreateMutex+0x7c>
    100118ca:	67e2                	ld	a5,24(sp)
    100118cc:	0007b423          	sd	zero,8(a5)
    100118d0:	67e2                	ld	a5,24(sp)
    100118d2:	0007b023          	sd	zero,0(a5)
    100118d6:	67e2                	ld	a5,24(sp)
    100118d8:	0007b823          	sd	zero,16(a5)
    100118dc:	67e2                	ld	a5,24(sp)
    100118de:	0007bc23          	sd	zero,24(a5)
    100118e2:	67e2                	ld	a5,24(sp)
    100118e4:	0607b823          	sd	zero,112(a5)
    100118e8:	67e2                	ld	a5,24(sp)
    100118ea:	4705                	li	a4,1
    100118ec:	ffb8                	sd	a4,120(a5)
    100118ee:	67e2                	ld	a5,24(sp)
    100118f0:	0807b023          	sd	zero,128(a5)
    100118f4:	67e2                	ld	a5,24(sp)
    100118f6:	577d                	li	a4,-1
    100118f8:	e7d8                	sd	a4,136(a5)
    100118fa:	67e2                	ld	a5,24(sp)
    100118fc:	577d                	li	a4,-1
    100118fe:	ebd8                	sd	a4,144(a5)
    10011900:	67e2                	ld	a5,24(sp)
    10011902:	00f14703          	lbu	a4,15(sp)
    10011906:	0ae78023          	sb	a4,160(a5)
    1001190a:	67e2                	ld	a5,24(sp)
    1001190c:	02078793          	addi	a5,a5,32
    10011910:	853e                	mv	a0,a5
    10011912:	d27ff0ef          	jal	ra,10011638 <vListInitialise>
    10011916:	67e2                	ld	a5,24(sp)
    10011918:	04878793          	addi	a5,a5,72
    1001191c:	853e                	mv	a0,a5
    1001191e:	d1bff0ef          	jal	ra,10011638 <vListInitialise>
    10011922:	4681                	li	a3,0
    10011924:	4601                	li	a2,0
    10011926:	4581                	li	a1,0
    10011928:	6562                	ld	a0,24(sp)
    1001192a:	118000ef          	jal	ra,10011a42 <xQueueGenericSend>
    1001192e:	67e2                	ld	a5,24(sp)
    10011930:	853e                	mv	a0,a5
    10011932:	70a2                	ld	ra,40(sp)
    10011934:	6145                	addi	sp,sp,48
    10011936:	8082                	ret

0000000010011938 <xQueueGiveMutexRecursive>:
    10011938:	7179                	addi	sp,sp,-48
    1001193a:	f406                	sd	ra,40(sp)
    1001193c:	f022                	sd	s0,32(sp)
    1001193e:	e42a                	sd	a0,8(sp)
    10011940:	67a2                	ld	a5,8(sp)
    10011942:	e83e                	sd	a5,16(sp)
    10011944:	67c2                	ld	a5,16(sp)
    10011946:	e781                	bnez	a5,1001194e <xQueueGiveMutexRecursive+0x16>
    10011948:	3000f073          	csrci	mstatus,1
    1001194c:	a001                	j	1001194c <xQueueGiveMutexRecursive+0x14>
    1001194e:	67c2                	ld	a5,16(sp)
    10011950:	6780                	ld	s0,8(a5)
    10011952:	216020ef          	jal	ra,10013b68 <xTaskGetCurrentTaskHandle>
    10011956:	87aa                	mv	a5,a0
    10011958:	02f41463          	bne	s0,a5,10011980 <xQueueGiveMutexRecursive+0x48>
    1001195c:	67c2                	ld	a5,16(sp)
    1001195e:	6f9c                	ld	a5,24(a5)
    10011960:	fff78713          	addi	a4,a5,-1
    10011964:	67c2                	ld	a5,16(sp)
    10011966:	ef98                	sd	a4,24(a5)
    10011968:	67c2                	ld	a5,16(sp)
    1001196a:	6f9c                	ld	a5,24(a5)
    1001196c:	e799                	bnez	a5,1001197a <xQueueGiveMutexRecursive+0x42>
    1001196e:	4681                	li	a3,0
    10011970:	4601                	li	a2,0
    10011972:	4581                	li	a1,0
    10011974:	6542                	ld	a0,16(sp)
    10011976:	0cc000ef          	jal	ra,10011a42 <xQueueGenericSend>
    1001197a:	4785                	li	a5,1
    1001197c:	ec3e                	sd	a5,24(sp)
    1001197e:	a011                	j	10011982 <xQueueGiveMutexRecursive+0x4a>
    10011980:	ec02                	sd	zero,24(sp)
    10011982:	67e2                	ld	a5,24(sp)
    10011984:	853e                	mv	a0,a5
    10011986:	70a2                	ld	ra,40(sp)
    10011988:	7402                	ld	s0,32(sp)
    1001198a:	6145                	addi	sp,sp,48
    1001198c:	8082                	ret

000000001001198e <xQueueTakeMutexRecursive>:
    1001198e:	7179                	addi	sp,sp,-48
    10011990:	f406                	sd	ra,40(sp)
    10011992:	f022                	sd	s0,32(sp)
    10011994:	e42a                	sd	a0,8(sp)
    10011996:	87ae                	mv	a5,a1
    10011998:	c23e                	sw	a5,4(sp)
    1001199a:	67a2                	ld	a5,8(sp)
    1001199c:	e83e                	sd	a5,16(sp)
    1001199e:	67c2                	ld	a5,16(sp)
    100119a0:	e781                	bnez	a5,100119a8 <xQueueTakeMutexRecursive+0x1a>
    100119a2:	3000f073          	csrci	mstatus,1
    100119a6:	a001                	j	100119a6 <xQueueTakeMutexRecursive+0x18>
    100119a8:	67c2                	ld	a5,16(sp)
    100119aa:	6780                	ld	s0,8(a5)
    100119ac:	1bc020ef          	jal	ra,10013b68 <xTaskGetCurrentTaskHandle>
    100119b0:	87aa                	mv	a5,a0
    100119b2:	00f41b63          	bne	s0,a5,100119c8 <xQueueTakeMutexRecursive+0x3a>
    100119b6:	67c2                	ld	a5,16(sp)
    100119b8:	6f9c                	ld	a5,24(a5)
    100119ba:	00178713          	addi	a4,a5,1
    100119be:	67c2                	ld	a5,16(sp)
    100119c0:	ef98                	sd	a4,24(a5)
    100119c2:	4785                	li	a5,1
    100119c4:	ec3e                	sd	a5,24(sp)
    100119c6:	a01d                	j	100119ec <xQueueTakeMutexRecursive+0x5e>
    100119c8:	4792                	lw	a5,4(sp)
    100119ca:	4681                	li	a3,0
    100119cc:	863e                	mv	a2,a5
    100119ce:	4581                	li	a1,0
    100119d0:	6542                	ld	a0,16(sp)
    100119d2:	35c000ef          	jal	ra,10011d2e <xQueueGenericReceive>
    100119d6:	ec2a                	sd	a0,24(sp)
    100119d8:	6762                	ld	a4,24(sp)
    100119da:	4785                	li	a5,1
    100119dc:	00f71863          	bne	a4,a5,100119ec <xQueueTakeMutexRecursive+0x5e>
    100119e0:	67c2                	ld	a5,16(sp)
    100119e2:	6f9c                	ld	a5,24(a5)
    100119e4:	00178713          	addi	a4,a5,1
    100119e8:	67c2                	ld	a5,16(sp)
    100119ea:	ef98                	sd	a4,24(a5)
    100119ec:	67e2                	ld	a5,24(sp)
    100119ee:	853e                	mv	a0,a5
    100119f0:	70a2                	ld	ra,40(sp)
    100119f2:	7402                	ld	s0,32(sp)
    100119f4:	6145                	addi	sp,sp,48
    100119f6:	8082                	ret

00000000100119f8 <xQueueCreateCountingSemaphore>:
    100119f8:	7179                	addi	sp,sp,-48
    100119fa:	f406                	sd	ra,40(sp)
    100119fc:	e42a                	sd	a0,8(sp)
    100119fe:	e02e                	sd	a1,0(sp)
    10011a00:	67a2                	ld	a5,8(sp)
    10011a02:	e781                	bnez	a5,10011a0a <xQueueCreateCountingSemaphore+0x12>
    10011a04:	3000f073          	csrci	mstatus,1
    10011a08:	a001                	j	10011a08 <xQueueCreateCountingSemaphore+0x10>
    10011a0a:	6702                	ld	a4,0(sp)
    10011a0c:	67a2                	ld	a5,8(sp)
    10011a0e:	00e7f563          	bgeu	a5,a4,10011a18 <xQueueCreateCountingSemaphore+0x20>
    10011a12:	3000f073          	csrci	mstatus,1
    10011a16:	a001                	j	10011a16 <xQueueCreateCountingSemaphore+0x1e>
    10011a18:	4609                	li	a2,2
    10011a1a:	4581                	li	a1,0
    10011a1c:	6522                	ld	a0,8(sp)
    10011a1e:	e09ff0ef          	jal	ra,10011826 <xQueueGenericCreate>
    10011a22:	ec2a                	sd	a0,24(sp)
    10011a24:	67e2                	ld	a5,24(sp)
    10011a26:	c781                	beqz	a5,10011a2e <xQueueCreateCountingSemaphore+0x36>
    10011a28:	67e2                	ld	a5,24(sp)
    10011a2a:	6702                	ld	a4,0(sp)
    10011a2c:	fbb8                	sd	a4,112(a5)
    10011a2e:	67e2                	ld	a5,24(sp)
    10011a30:	e781                	bnez	a5,10011a38 <xQueueCreateCountingSemaphore+0x40>
    10011a32:	3000f073          	csrci	mstatus,1
    10011a36:	a001                	j	10011a36 <xQueueCreateCountingSemaphore+0x3e>
    10011a38:	67e2                	ld	a5,24(sp)
    10011a3a:	853e                	mv	a0,a5
    10011a3c:	70a2                	ld	ra,40(sp)
    10011a3e:	6145                	addi	sp,sp,48
    10011a40:	8082                	ret

0000000010011a42 <xQueueGenericSend>:
    10011a42:	711d                	addi	sp,sp,-96
    10011a44:	ec86                	sd	ra,88(sp)
    10011a46:	ec2a                	sd	a0,24(sp)
    10011a48:	e82e                	sd	a1,16(sp)
    10011a4a:	87b2                	mv	a5,a2
    10011a4c:	e036                	sd	a3,0(sp)
    10011a4e:	c63e                	sw	a5,12(sp)
    10011a50:	e482                	sd	zero,72(sp)
    10011a52:	67e2                	ld	a5,24(sp)
    10011a54:	e0be                	sd	a5,64(sp)
    10011a56:	6786                	ld	a5,64(sp)
    10011a58:	e781                	bnez	a5,10011a60 <xQueueGenericSend+0x1e>
    10011a5a:	3000f073          	csrci	mstatus,1
    10011a5e:	a001                	j	10011a5e <xQueueGenericSend+0x1c>
    10011a60:	67c2                	ld	a5,16(sp)
    10011a62:	e781                	bnez	a5,10011a6a <xQueueGenericSend+0x28>
    10011a64:	6786                	ld	a5,64(sp)
    10011a66:	63dc                	ld	a5,128(a5)
    10011a68:	e399                	bnez	a5,10011a6e <xQueueGenericSend+0x2c>
    10011a6a:	4785                	li	a5,1
    10011a6c:	a011                	j	10011a70 <xQueueGenericSend+0x2e>
    10011a6e:	4781                	li	a5,0
    10011a70:	e781                	bnez	a5,10011a78 <xQueueGenericSend+0x36>
    10011a72:	3000f073          	csrci	mstatus,1
    10011a76:	a001                	j	10011a76 <xQueueGenericSend+0x34>
    10011a78:	6702                	ld	a4,0(sp)
    10011a7a:	4789                	li	a5,2
    10011a7c:	00f71763          	bne	a4,a5,10011a8a <xQueueGenericSend+0x48>
    10011a80:	6786                	ld	a5,64(sp)
    10011a82:	7fb8                	ld	a4,120(a5)
    10011a84:	4785                	li	a5,1
    10011a86:	00f71463          	bne	a4,a5,10011a8e <xQueueGenericSend+0x4c>
    10011a8a:	4785                	li	a5,1
    10011a8c:	a011                	j	10011a90 <xQueueGenericSend+0x4e>
    10011a8e:	4781                	li	a5,0
    10011a90:	e781                	bnez	a5,10011a98 <xQueueGenericSend+0x56>
    10011a92:	3000f073          	csrci	mstatus,1
    10011a96:	a001                	j	10011a96 <xQueueGenericSend+0x54>
    10011a98:	0e4020ef          	jal	ra,10013b7c <xTaskGetSchedulerState>
    10011a9c:	87aa                	mv	a5,a0
    10011a9e:	e399                	bnez	a5,10011aa4 <xQueueGenericSend+0x62>
    10011aa0:	47b2                	lw	a5,12(sp)
    10011aa2:	e399                	bnez	a5,10011aa8 <xQueueGenericSend+0x66>
    10011aa4:	4785                	li	a5,1
    10011aa6:	a011                	j	10011aaa <xQueueGenericSend+0x68>
    10011aa8:	4781                	li	a5,0
    10011aaa:	e781                	bnez	a5,10011ab2 <xQueueGenericSend+0x70>
    10011aac:	3000f073          	csrci	mstatus,1
    10011ab0:	a001                	j	10011ab0 <xQueueGenericSend+0x6e>
    10011ab2:	28e020ef          	jal	ra,10013d40 <vTaskEnterCritical>
    10011ab6:	6786                	ld	a5,64(sp)
    10011ab8:	7bb8                	ld	a4,112(a5)
    10011aba:	6786                	ld	a5,64(sp)
    10011abc:	7fbc                	ld	a5,120(a5)
    10011abe:	00f76663          	bltu	a4,a5,10011aca <xQueueGenericSend+0x88>
    10011ac2:	6702                	ld	a4,0(sp)
    10011ac4:	4789                	li	a5,2
    10011ac6:	04f71063          	bne	a4,a5,10011b06 <xQueueGenericSend+0xc4>
    10011aca:	6602                	ld	a2,0(sp)
    10011acc:	65c2                	ld	a1,16(sp)
    10011ace:	6506                	ld	a0,64(sp)
    10011ad0:	5e0000ef          	jal	ra,100120b0 <prvCopyDataToQueue>
    10011ad4:	fc2a                	sd	a0,56(sp)
    10011ad6:	6786                	ld	a5,64(sp)
    10011ad8:	67bc                	ld	a5,72(a5)
    10011ada:	cf91                	beqz	a5,10011af6 <xQueueGenericSend+0xb4>
    10011adc:	6786                	ld	a5,64(sp)
    10011ade:	04878793          	addi	a5,a5,72
    10011ae2:	853e                	mv	a0,a5
    10011ae4:	111010ef          	jal	ra,100133f4 <xTaskRemoveFromEventList>
    10011ae8:	872a                	mv	a4,a0
    10011aea:	4785                	li	a5,1
    10011aec:	00f71963          	bne	a4,a5,10011afe <xQueueGenericSend+0xbc>
    10011af0:	9e7ff0ef          	jal	ra,100114d6 <vPortYield>
    10011af4:	a029                	j	10011afe <xQueueGenericSend+0xbc>
    10011af6:	77e2                	ld	a5,56(sp)
    10011af8:	c399                	beqz	a5,10011afe <xQueueGenericSend+0xbc>
    10011afa:	9ddff0ef          	jal	ra,100114d6 <vPortYield>
    10011afe:	26a020ef          	jal	ra,10013d68 <vTaskExitCritical>
    10011b02:	4785                	li	a5,1
    10011b04:	a05d                	j	10011baa <xQueueGenericSend+0x168>
    10011b06:	47b2                	lw	a5,12(sp)
    10011b08:	e789                	bnez	a5,10011b12 <xQueueGenericSend+0xd0>
    10011b0a:	25e020ef          	jal	ra,10013d68 <vTaskExitCritical>
    10011b0e:	4781                	li	a5,0
    10011b10:	a869                	j	10011baa <xQueueGenericSend+0x168>
    10011b12:	67a6                	ld	a5,72(sp)
    10011b14:	e799                	bnez	a5,10011b22 <xQueueGenericSend+0xe0>
    10011b16:	103c                	addi	a5,sp,40
    10011b18:	853e                	mv	a0,a5
    10011b1a:	24b010ef          	jal	ra,10013564 <vTaskSetTimeOutState>
    10011b1e:	4785                	li	a5,1
    10011b20:	e4be                	sd	a5,72(sp)
    10011b22:	246020ef          	jal	ra,10013d68 <vTaskExitCritical>
    10011b26:	19e010ef          	jal	ra,10012cc4 <vTaskSuspendAll>
    10011b2a:	216020ef          	jal	ra,10013d40 <vTaskEnterCritical>
    10011b2e:	6786                	ld	a5,64(sp)
    10011b30:	67d8                	ld	a4,136(a5)
    10011b32:	57fd                	li	a5,-1
    10011b34:	00f71563          	bne	a4,a5,10011b3e <xQueueGenericSend+0xfc>
    10011b38:	6786                	ld	a5,64(sp)
    10011b3a:	0807b423          	sd	zero,136(a5)
    10011b3e:	6786                	ld	a5,64(sp)
    10011b40:	6bd8                	ld	a4,144(a5)
    10011b42:	57fd                	li	a5,-1
    10011b44:	00f71563          	bne	a4,a5,10011b4e <xQueueGenericSend+0x10c>
    10011b48:	6786                	ld	a5,64(sp)
    10011b4a:	0807b823          	sd	zero,144(a5)
    10011b4e:	21a020ef          	jal	ra,10013d68 <vTaskExitCritical>
    10011b52:	0078                	addi	a4,sp,12
    10011b54:	103c                	addi	a5,sp,40
    10011b56:	85ba                	mv	a1,a4
    10011b58:	853e                	mv	a0,a5
    10011b5a:	23b010ef          	jal	ra,10013594 <xTaskCheckForTimeOut>
    10011b5e:	87aa                	mv	a5,a0
    10011b60:	ef9d                	bnez	a5,10011b9e <xQueueGenericSend+0x15c>
    10011b62:	6506                	ld	a0,64(sp)
    10011b64:	74a000ef          	jal	ra,100122ae <prvIsQueueFull>
    10011b68:	87aa                	mv	a5,a0
    10011b6a:	c785                	beqz	a5,10011b92 <xQueueGenericSend+0x150>
    10011b6c:	6786                	ld	a5,64(sp)
    10011b6e:	02078793          	addi	a5,a5,32
    10011b72:	4732                	lw	a4,12(sp)
    10011b74:	85ba                	mv	a1,a4
    10011b76:	853e                	mv	a0,a5
    10011b78:	6da010ef          	jal	ra,10013252 <vTaskPlaceOnEventList>
    10011b7c:	6506                	ld	a0,64(sp)
    10011b7e:	654000ef          	jal	ra,100121d2 <prvUnlockQueue>
    10011b82:	15a010ef          	jal	ra,10012cdc <xTaskResumeAll>
    10011b86:	87aa                	mv	a5,a0
    10011b88:	f20795e3          	bnez	a5,10011ab2 <xQueueGenericSend+0x70>
    10011b8c:	94bff0ef          	jal	ra,100114d6 <vPortYield>
    10011b90:	b70d                	j	10011ab2 <xQueueGenericSend+0x70>
    10011b92:	6506                	ld	a0,64(sp)
    10011b94:	63e000ef          	jal	ra,100121d2 <prvUnlockQueue>
    10011b98:	144010ef          	jal	ra,10012cdc <xTaskResumeAll>
    10011b9c:	bf19                	j	10011ab2 <xQueueGenericSend+0x70>
    10011b9e:	6506                	ld	a0,64(sp)
    10011ba0:	632000ef          	jal	ra,100121d2 <prvUnlockQueue>
    10011ba4:	138010ef          	jal	ra,10012cdc <xTaskResumeAll>
    10011ba8:	4781                	li	a5,0
    10011baa:	853e                	mv	a0,a5
    10011bac:	60e6                	ld	ra,88(sp)
    10011bae:	6125                	addi	sp,sp,96
    10011bb0:	8082                	ret

0000000010011bb2 <xQueueGenericSendFromISR>:
    10011bb2:	715d                	addi	sp,sp,-80
    10011bb4:	e486                	sd	ra,72(sp)
    10011bb6:	ec2a                	sd	a0,24(sp)
    10011bb8:	e82e                	sd	a1,16(sp)
    10011bba:	e432                	sd	a2,8(sp)
    10011bbc:	e036                	sd	a3,0(sp)
    10011bbe:	67e2                	ld	a5,24(sp)
    10011bc0:	f83e                	sd	a5,48(sp)
    10011bc2:	77c2                	ld	a5,48(sp)
    10011bc4:	e781                	bnez	a5,10011bcc <xQueueGenericSendFromISR+0x1a>
    10011bc6:	3000f073          	csrci	mstatus,1
    10011bca:	a001                	j	10011bca <xQueueGenericSendFromISR+0x18>
    10011bcc:	67c2                	ld	a5,16(sp)
    10011bce:	e781                	bnez	a5,10011bd6 <xQueueGenericSendFromISR+0x24>
    10011bd0:	77c2                	ld	a5,48(sp)
    10011bd2:	63dc                	ld	a5,128(a5)
    10011bd4:	e399                	bnez	a5,10011bda <xQueueGenericSendFromISR+0x28>
    10011bd6:	4785                	li	a5,1
    10011bd8:	a011                	j	10011bdc <xQueueGenericSendFromISR+0x2a>
    10011bda:	4781                	li	a5,0
    10011bdc:	e781                	bnez	a5,10011be4 <xQueueGenericSendFromISR+0x32>
    10011bde:	3000f073          	csrci	mstatus,1
    10011be2:	a001                	j	10011be2 <xQueueGenericSendFromISR+0x30>
    10011be4:	6702                	ld	a4,0(sp)
    10011be6:	4789                	li	a5,2
    10011be8:	00f71763          	bne	a4,a5,10011bf6 <xQueueGenericSendFromISR+0x44>
    10011bec:	77c2                	ld	a5,48(sp)
    10011bee:	7fb8                	ld	a4,120(a5)
    10011bf0:	4785                	li	a5,1
    10011bf2:	00f71463          	bne	a4,a5,10011bfa <xQueueGenericSendFromISR+0x48>
    10011bf6:	4785                	li	a5,1
    10011bf8:	a011                	j	10011bfc <xQueueGenericSendFromISR+0x4a>
    10011bfa:	4781                	li	a5,0
    10011bfc:	e781                	bnez	a5,10011c04 <xQueueGenericSendFromISR+0x52>
    10011bfe:	3000f073          	csrci	mstatus,1
    10011c02:	a001                	j	10011c02 <xQueueGenericSendFromISR+0x50>
    10011c04:	9b9ff0ef          	jal	ra,100115bc <vPortSetInterruptMask>
    10011c08:	87aa                	mv	a5,a0
    10011c0a:	f43e                	sd	a5,40(sp)
    10011c0c:	77c2                	ld	a5,48(sp)
    10011c0e:	7bb8                	ld	a4,112(a5)
    10011c10:	77c2                	ld	a5,48(sp)
    10011c12:	7fbc                	ld	a5,120(a5)
    10011c14:	00f76663          	bltu	a4,a5,10011c20 <xQueueGenericSendFromISR+0x6e>
    10011c18:	6702                	ld	a4,0(sp)
    10011c1a:	4789                	li	a5,2
    10011c1c:	04f71663          	bne	a4,a5,10011c68 <xQueueGenericSendFromISR+0xb6>
    10011c20:	6602                	ld	a2,0(sp)
    10011c22:	65c2                	ld	a1,16(sp)
    10011c24:	7542                	ld	a0,48(sp)
    10011c26:	48a000ef          	jal	ra,100120b0 <prvCopyDataToQueue>
    10011c2a:	77c2                	ld	a5,48(sp)
    10011c2c:	6bd8                	ld	a4,144(a5)
    10011c2e:	57fd                	li	a5,-1
    10011c30:	02f71363          	bne	a4,a5,10011c56 <xQueueGenericSendFromISR+0xa4>
    10011c34:	77c2                	ld	a5,48(sp)
    10011c36:	67bc                	ld	a5,72(a5)
    10011c38:	c78d                	beqz	a5,10011c62 <xQueueGenericSendFromISR+0xb0>
    10011c3a:	77c2                	ld	a5,48(sp)
    10011c3c:	04878793          	addi	a5,a5,72
    10011c40:	853e                	mv	a0,a5
    10011c42:	7b2010ef          	jal	ra,100133f4 <xTaskRemoveFromEventList>
    10011c46:	87aa                	mv	a5,a0
    10011c48:	cf89                	beqz	a5,10011c62 <xQueueGenericSendFromISR+0xb0>
    10011c4a:	67a2                	ld	a5,8(sp)
    10011c4c:	cb99                	beqz	a5,10011c62 <xQueueGenericSendFromISR+0xb0>
    10011c4e:	67a2                	ld	a5,8(sp)
    10011c50:	4705                	li	a4,1
    10011c52:	e398                	sd	a4,0(a5)
    10011c54:	a039                	j	10011c62 <xQueueGenericSendFromISR+0xb0>
    10011c56:	77c2                	ld	a5,48(sp)
    10011c58:	6bdc                	ld	a5,144(a5)
    10011c5a:	00178713          	addi	a4,a5,1
    10011c5e:	77c2                	ld	a5,48(sp)
    10011c60:	ebd8                	sd	a4,144(a5)
    10011c62:	4785                	li	a5,1
    10011c64:	fc3e                	sd	a5,56(sp)
    10011c66:	a011                	j	10011c6a <xQueueGenericSendFromISR+0xb8>
    10011c68:	fc02                	sd	zero,56(sp)
    10011c6a:	77a2                	ld	a5,40(sp)
    10011c6c:	2781                	sext.w	a5,a5
    10011c6e:	853e                	mv	a0,a5
    10011c70:	93bff0ef          	jal	ra,100115aa <vPortClearInterruptMask>
    10011c74:	77e2                	ld	a5,56(sp)
    10011c76:	853e                	mv	a0,a5
    10011c78:	60a6                	ld	ra,72(sp)
    10011c7a:	6161                	addi	sp,sp,80
    10011c7c:	8082                	ret

0000000010011c7e <xQueueGiveFromISR>:
    10011c7e:	7139                	addi	sp,sp,-64
    10011c80:	fc06                	sd	ra,56(sp)
    10011c82:	e42a                	sd	a0,8(sp)
    10011c84:	e02e                	sd	a1,0(sp)
    10011c86:	67a2                	ld	a5,8(sp)
    10011c88:	f03e                	sd	a5,32(sp)
    10011c8a:	7782                	ld	a5,32(sp)
    10011c8c:	e781                	bnez	a5,10011c94 <xQueueGiveFromISR+0x16>
    10011c8e:	3000f073          	csrci	mstatus,1
    10011c92:	a001                	j	10011c92 <xQueueGiveFromISR+0x14>
    10011c94:	7782                	ld	a5,32(sp)
    10011c96:	63dc                	ld	a5,128(a5)
    10011c98:	c781                	beqz	a5,10011ca0 <xQueueGiveFromISR+0x22>
    10011c9a:	3000f073          	csrci	mstatus,1
    10011c9e:	a001                	j	10011c9e <xQueueGiveFromISR+0x20>
    10011ca0:	7782                	ld	a5,32(sp)
    10011ca2:	639c                	ld	a5,0(a5)
    10011ca4:	e781                	bnez	a5,10011cac <xQueueGiveFromISR+0x2e>
    10011ca6:	7782                	ld	a5,32(sp)
    10011ca8:	679c                	ld	a5,8(a5)
    10011caa:	e399                	bnez	a5,10011cb0 <xQueueGiveFromISR+0x32>
    10011cac:	4785                	li	a5,1
    10011cae:	a011                	j	10011cb2 <xQueueGiveFromISR+0x34>
    10011cb0:	4781                	li	a5,0
    10011cb2:	e781                	bnez	a5,10011cba <xQueueGiveFromISR+0x3c>
    10011cb4:	3000f073          	csrci	mstatus,1
    10011cb8:	a001                	j	10011cb8 <xQueueGiveFromISR+0x3a>
    10011cba:	903ff0ef          	jal	ra,100115bc <vPortSetInterruptMask>
    10011cbe:	87aa                	mv	a5,a0
    10011cc0:	ec3e                	sd	a5,24(sp)
    10011cc2:	7782                	ld	a5,32(sp)
    10011cc4:	7bb8                	ld	a4,112(a5)
    10011cc6:	7782                	ld	a5,32(sp)
    10011cc8:	7fbc                	ld	a5,120(a5)
    10011cca:	04f77763          	bgeu	a4,a5,10011d18 <xQueueGiveFromISR+0x9a>
    10011cce:	7782                	ld	a5,32(sp)
    10011cd0:	7bbc                	ld	a5,112(a5)
    10011cd2:	00178713          	addi	a4,a5,1
    10011cd6:	7782                	ld	a5,32(sp)
    10011cd8:	fbb8                	sd	a4,112(a5)
    10011cda:	7782                	ld	a5,32(sp)
    10011cdc:	6bd8                	ld	a4,144(a5)
    10011cde:	57fd                	li	a5,-1
    10011ce0:	02f71363          	bne	a4,a5,10011d06 <xQueueGiveFromISR+0x88>
    10011ce4:	7782                	ld	a5,32(sp)
    10011ce6:	67bc                	ld	a5,72(a5)
    10011ce8:	c78d                	beqz	a5,10011d12 <xQueueGiveFromISR+0x94>
    10011cea:	7782                	ld	a5,32(sp)
    10011cec:	04878793          	addi	a5,a5,72
    10011cf0:	853e                	mv	a0,a5
    10011cf2:	702010ef          	jal	ra,100133f4 <xTaskRemoveFromEventList>
    10011cf6:	87aa                	mv	a5,a0
    10011cf8:	cf89                	beqz	a5,10011d12 <xQueueGiveFromISR+0x94>
    10011cfa:	6782                	ld	a5,0(sp)
    10011cfc:	cb99                	beqz	a5,10011d12 <xQueueGiveFromISR+0x94>
    10011cfe:	6782                	ld	a5,0(sp)
    10011d00:	4705                	li	a4,1
    10011d02:	e398                	sd	a4,0(a5)
    10011d04:	a039                	j	10011d12 <xQueueGiveFromISR+0x94>
    10011d06:	7782                	ld	a5,32(sp)
    10011d08:	6bdc                	ld	a5,144(a5)
    10011d0a:	00178713          	addi	a4,a5,1
    10011d0e:	7782                	ld	a5,32(sp)
    10011d10:	ebd8                	sd	a4,144(a5)
    10011d12:	4785                	li	a5,1
    10011d14:	f43e                	sd	a5,40(sp)
    10011d16:	a011                	j	10011d1a <xQueueGiveFromISR+0x9c>
    10011d18:	f402                	sd	zero,40(sp)
    10011d1a:	67e2                	ld	a5,24(sp)
    10011d1c:	2781                	sext.w	a5,a5
    10011d1e:	853e                	mv	a0,a5
    10011d20:	88bff0ef          	jal	ra,100115aa <vPortClearInterruptMask>
    10011d24:	77a2                	ld	a5,40(sp)
    10011d26:	853e                	mv	a0,a5
    10011d28:	70e2                	ld	ra,56(sp)
    10011d2a:	6121                	addi	sp,sp,64
    10011d2c:	8082                	ret

0000000010011d2e <xQueueGenericReceive>:
    10011d2e:	711d                	addi	sp,sp,-96
    10011d30:	ec86                	sd	ra,88(sp)
    10011d32:	ec2a                	sd	a0,24(sp)
    10011d34:	e82e                	sd	a1,16(sp)
    10011d36:	87b2                	mv	a5,a2
    10011d38:	e036                	sd	a3,0(sp)
    10011d3a:	c63e                	sw	a5,12(sp)
    10011d3c:	e482                	sd	zero,72(sp)
    10011d3e:	67e2                	ld	a5,24(sp)
    10011d40:	e0be                	sd	a5,64(sp)
    10011d42:	6786                	ld	a5,64(sp)
    10011d44:	e781                	bnez	a5,10011d4c <xQueueGenericReceive+0x1e>
    10011d46:	3000f073          	csrci	mstatus,1
    10011d4a:	a001                	j	10011d4a <xQueueGenericReceive+0x1c>
    10011d4c:	67c2                	ld	a5,16(sp)
    10011d4e:	e781                	bnez	a5,10011d56 <xQueueGenericReceive+0x28>
    10011d50:	6786                	ld	a5,64(sp)
    10011d52:	63dc                	ld	a5,128(a5)
    10011d54:	e399                	bnez	a5,10011d5a <xQueueGenericReceive+0x2c>
    10011d56:	4785                	li	a5,1
    10011d58:	a011                	j	10011d5c <xQueueGenericReceive+0x2e>
    10011d5a:	4781                	li	a5,0
    10011d5c:	e781                	bnez	a5,10011d64 <xQueueGenericReceive+0x36>
    10011d5e:	3000f073          	csrci	mstatus,1
    10011d62:	a001                	j	10011d62 <xQueueGenericReceive+0x34>
    10011d64:	619010ef          	jal	ra,10013b7c <xTaskGetSchedulerState>
    10011d68:	87aa                	mv	a5,a0
    10011d6a:	e399                	bnez	a5,10011d70 <xQueueGenericReceive+0x42>
    10011d6c:	47b2                	lw	a5,12(sp)
    10011d6e:	e399                	bnez	a5,10011d74 <xQueueGenericReceive+0x46>
    10011d70:	4785                	li	a5,1
    10011d72:	a011                	j	10011d76 <xQueueGenericReceive+0x48>
    10011d74:	4781                	li	a5,0
    10011d76:	e781                	bnez	a5,10011d7e <xQueueGenericReceive+0x50>
    10011d78:	3000f073          	csrci	mstatus,1
    10011d7c:	a001                	j	10011d7c <xQueueGenericReceive+0x4e>
    10011d7e:	7c3010ef          	jal	ra,10013d40 <vTaskEnterCritical>
    10011d82:	6786                	ld	a5,64(sp)
    10011d84:	7bbc                	ld	a5,112(a5)
    10011d86:	cfa5                	beqz	a5,10011dfe <xQueueGenericReceive+0xd0>
    10011d88:	6786                	ld	a5,64(sp)
    10011d8a:	6f9c                	ld	a5,24(a5)
    10011d8c:	fc3e                	sd	a5,56(sp)
    10011d8e:	65c2                	ld	a1,16(sp)
    10011d90:	6506                	ld	a0,64(sp)
    10011d92:	3f6000ef          	jal	ra,10012188 <prvCopyDataFromQueue>
    10011d96:	6782                	ld	a5,0(sp)
    10011d98:	ef9d                	bnez	a5,10011dd6 <xQueueGenericReceive+0xa8>
    10011d9a:	6786                	ld	a5,64(sp)
    10011d9c:	7bbc                	ld	a5,112(a5)
    10011d9e:	fff78713          	addi	a4,a5,-1
    10011da2:	6786                	ld	a5,64(sp)
    10011da4:	fbb8                	sd	a4,112(a5)
    10011da6:	6786                	ld	a5,64(sp)
    10011da8:	639c                	ld	a5,0(a5)
    10011daa:	e791                	bnez	a5,10011db6 <xQueueGenericReceive+0x88>
    10011dac:	02a020ef          	jal	ra,10013dd6 <pvTaskIncrementMutexHeldCount>
    10011db0:	872a                	mv	a4,a0
    10011db2:	6786                	ld	a5,64(sp)
    10011db4:	e798                	sd	a4,8(a5)
    10011db6:	6786                	ld	a5,64(sp)
    10011db8:	739c                	ld	a5,32(a5)
    10011dba:	cf95                	beqz	a5,10011df6 <xQueueGenericReceive+0xc8>
    10011dbc:	6786                	ld	a5,64(sp)
    10011dbe:	02078793          	addi	a5,a5,32
    10011dc2:	853e                	mv	a0,a5
    10011dc4:	630010ef          	jal	ra,100133f4 <xTaskRemoveFromEventList>
    10011dc8:	872a                	mv	a4,a0
    10011dca:	4785                	li	a5,1
    10011dcc:	02f71563          	bne	a4,a5,10011df6 <xQueueGenericReceive+0xc8>
    10011dd0:	f06ff0ef          	jal	ra,100114d6 <vPortYield>
    10011dd4:	a00d                	j	10011df6 <xQueueGenericReceive+0xc8>
    10011dd6:	6786                	ld	a5,64(sp)
    10011dd8:	7762                	ld	a4,56(sp)
    10011dda:	ef98                	sd	a4,24(a5)
    10011ddc:	6786                	ld	a5,64(sp)
    10011dde:	67bc                	ld	a5,72(a5)
    10011de0:	cb99                	beqz	a5,10011df6 <xQueueGenericReceive+0xc8>
    10011de2:	6786                	ld	a5,64(sp)
    10011de4:	04878793          	addi	a5,a5,72
    10011de8:	853e                	mv	a0,a5
    10011dea:	60a010ef          	jal	ra,100133f4 <xTaskRemoveFromEventList>
    10011dee:	87aa                	mv	a5,a0
    10011df0:	c399                	beqz	a5,10011df6 <xQueueGenericReceive+0xc8>
    10011df2:	ee4ff0ef          	jal	ra,100114d6 <vPortYield>
    10011df6:	773010ef          	jal	ra,10013d68 <vTaskExitCritical>
    10011dfa:	4785                	li	a5,1
    10011dfc:	a87d                	j	10011eba <xQueueGenericReceive+0x18c>
    10011dfe:	47b2                	lw	a5,12(sp)
    10011e00:	e789                	bnez	a5,10011e0a <xQueueGenericReceive+0xdc>
    10011e02:	767010ef          	jal	ra,10013d68 <vTaskExitCritical>
    10011e06:	4781                	li	a5,0
    10011e08:	a84d                	j	10011eba <xQueueGenericReceive+0x18c>
    10011e0a:	67a6                	ld	a5,72(sp)
    10011e0c:	e799                	bnez	a5,10011e1a <xQueueGenericReceive+0xec>
    10011e0e:	103c                	addi	a5,sp,40
    10011e10:	853e                	mv	a0,a5
    10011e12:	752010ef          	jal	ra,10013564 <vTaskSetTimeOutState>
    10011e16:	4785                	li	a5,1
    10011e18:	e4be                	sd	a5,72(sp)
    10011e1a:	74f010ef          	jal	ra,10013d68 <vTaskExitCritical>
    10011e1e:	6a7000ef          	jal	ra,10012cc4 <vTaskSuspendAll>
    10011e22:	71f010ef          	jal	ra,10013d40 <vTaskEnterCritical>
    10011e26:	6786                	ld	a5,64(sp)
    10011e28:	67d8                	ld	a4,136(a5)
    10011e2a:	57fd                	li	a5,-1
    10011e2c:	00f71563          	bne	a4,a5,10011e36 <xQueueGenericReceive+0x108>
    10011e30:	6786                	ld	a5,64(sp)
    10011e32:	0807b423          	sd	zero,136(a5)
    10011e36:	6786                	ld	a5,64(sp)
    10011e38:	6bd8                	ld	a4,144(a5)
    10011e3a:	57fd                	li	a5,-1
    10011e3c:	00f71563          	bne	a4,a5,10011e46 <xQueueGenericReceive+0x118>
    10011e40:	6786                	ld	a5,64(sp)
    10011e42:	0807b823          	sd	zero,144(a5)
    10011e46:	723010ef          	jal	ra,10013d68 <vTaskExitCritical>
    10011e4a:	0078                	addi	a4,sp,12
    10011e4c:	103c                	addi	a5,sp,40
    10011e4e:	85ba                	mv	a1,a4
    10011e50:	853e                	mv	a0,a5
    10011e52:	742010ef          	jal	ra,10013594 <xTaskCheckForTimeOut>
    10011e56:	87aa                	mv	a5,a0
    10011e58:	ebb9                	bnez	a5,10011eae <xQueueGenericReceive+0x180>
    10011e5a:	6506                	ld	a0,64(sp)
    10011e5c:	408000ef          	jal	ra,10012264 <prvIsQueueEmpty>
    10011e60:	87aa                	mv	a5,a0
    10011e62:	c3a1                	beqz	a5,10011ea2 <xQueueGenericReceive+0x174>
    10011e64:	6786                	ld	a5,64(sp)
    10011e66:	639c                	ld	a5,0(a5)
    10011e68:	eb91                	bnez	a5,10011e7c <xQueueGenericReceive+0x14e>
    10011e6a:	6d7010ef          	jal	ra,10013d40 <vTaskEnterCritical>
    10011e6e:	6786                	ld	a5,64(sp)
    10011e70:	679c                	ld	a5,8(a5)
    10011e72:	853e                	mv	a0,a5
    10011e74:	535010ef          	jal	ra,10013ba8 <vTaskPriorityInherit>
    10011e78:	6f1010ef          	jal	ra,10013d68 <vTaskExitCritical>
    10011e7c:	6786                	ld	a5,64(sp)
    10011e7e:	04878793          	addi	a5,a5,72
    10011e82:	4732                	lw	a4,12(sp)
    10011e84:	85ba                	mv	a1,a4
    10011e86:	853e                	mv	a0,a5
    10011e88:	3ca010ef          	jal	ra,10013252 <vTaskPlaceOnEventList>
    10011e8c:	6506                	ld	a0,64(sp)
    10011e8e:	344000ef          	jal	ra,100121d2 <prvUnlockQueue>
    10011e92:	64b000ef          	jal	ra,10012cdc <xTaskResumeAll>
    10011e96:	87aa                	mv	a5,a0
    10011e98:	ee0793e3          	bnez	a5,10011d7e <xQueueGenericReceive+0x50>
    10011e9c:	e3aff0ef          	jal	ra,100114d6 <vPortYield>
    10011ea0:	bdf9                	j	10011d7e <xQueueGenericReceive+0x50>
    10011ea2:	6506                	ld	a0,64(sp)
    10011ea4:	32e000ef          	jal	ra,100121d2 <prvUnlockQueue>
    10011ea8:	635000ef          	jal	ra,10012cdc <xTaskResumeAll>
    10011eac:	bdc9                	j	10011d7e <xQueueGenericReceive+0x50>
    10011eae:	6506                	ld	a0,64(sp)
    10011eb0:	322000ef          	jal	ra,100121d2 <prvUnlockQueue>
    10011eb4:	629000ef          	jal	ra,10012cdc <xTaskResumeAll>
    10011eb8:	4781                	li	a5,0
    10011eba:	853e                	mv	a0,a5
    10011ebc:	60e6                	ld	ra,88(sp)
    10011ebe:	6125                	addi	sp,sp,96
    10011ec0:	8082                	ret

0000000010011ec2 <xQueueReceiveFromISR>:
    10011ec2:	715d                	addi	sp,sp,-80
    10011ec4:	e486                	sd	ra,72(sp)
    10011ec6:	ec2a                	sd	a0,24(sp)
    10011ec8:	e82e                	sd	a1,16(sp)
    10011eca:	e432                	sd	a2,8(sp)
    10011ecc:	67e2                	ld	a5,24(sp)
    10011ece:	f83e                	sd	a5,48(sp)
    10011ed0:	77c2                	ld	a5,48(sp)
    10011ed2:	e781                	bnez	a5,10011eda <xQueueReceiveFromISR+0x18>
    10011ed4:	3000f073          	csrci	mstatus,1
    10011ed8:	a001                	j	10011ed8 <xQueueReceiveFromISR+0x16>
    10011eda:	67c2                	ld	a5,16(sp)
    10011edc:	e781                	bnez	a5,10011ee4 <xQueueReceiveFromISR+0x22>
    10011ede:	77c2                	ld	a5,48(sp)
    10011ee0:	63dc                	ld	a5,128(a5)
    10011ee2:	e399                	bnez	a5,10011ee8 <xQueueReceiveFromISR+0x26>
    10011ee4:	4785                	li	a5,1
    10011ee6:	a011                	j	10011eea <xQueueReceiveFromISR+0x28>
    10011ee8:	4781                	li	a5,0
    10011eea:	e781                	bnez	a5,10011ef2 <xQueueReceiveFromISR+0x30>
    10011eec:	3000f073          	csrci	mstatus,1
    10011ef0:	a001                	j	10011ef0 <xQueueReceiveFromISR+0x2e>
    10011ef2:	ecaff0ef          	jal	ra,100115bc <vPortSetInterruptMask>
    10011ef6:	87aa                	mv	a5,a0
    10011ef8:	f43e                	sd	a5,40(sp)
    10011efa:	77c2                	ld	a5,48(sp)
    10011efc:	7bbc                	ld	a5,112(a5)
    10011efe:	cbb1                	beqz	a5,10011f52 <xQueueReceiveFromISR+0x90>
    10011f00:	65c2                	ld	a1,16(sp)
    10011f02:	7542                	ld	a0,48(sp)
    10011f04:	284000ef          	jal	ra,10012188 <prvCopyDataFromQueue>
    10011f08:	77c2                	ld	a5,48(sp)
    10011f0a:	7bbc                	ld	a5,112(a5)
    10011f0c:	fff78713          	addi	a4,a5,-1
    10011f10:	77c2                	ld	a5,48(sp)
    10011f12:	fbb8                	sd	a4,112(a5)
    10011f14:	77c2                	ld	a5,48(sp)
    10011f16:	67d8                	ld	a4,136(a5)
    10011f18:	57fd                	li	a5,-1
    10011f1a:	02f71363          	bne	a4,a5,10011f40 <xQueueReceiveFromISR+0x7e>
    10011f1e:	77c2                	ld	a5,48(sp)
    10011f20:	739c                	ld	a5,32(a5)
    10011f22:	c78d                	beqz	a5,10011f4c <xQueueReceiveFromISR+0x8a>
    10011f24:	77c2                	ld	a5,48(sp)
    10011f26:	02078793          	addi	a5,a5,32
    10011f2a:	853e                	mv	a0,a5
    10011f2c:	4c8010ef          	jal	ra,100133f4 <xTaskRemoveFromEventList>
    10011f30:	87aa                	mv	a5,a0
    10011f32:	cf89                	beqz	a5,10011f4c <xQueueReceiveFromISR+0x8a>
    10011f34:	67a2                	ld	a5,8(sp)
    10011f36:	cb99                	beqz	a5,10011f4c <xQueueReceiveFromISR+0x8a>
    10011f38:	67a2                	ld	a5,8(sp)
    10011f3a:	4705                	li	a4,1
    10011f3c:	e398                	sd	a4,0(a5)
    10011f3e:	a039                	j	10011f4c <xQueueReceiveFromISR+0x8a>
    10011f40:	77c2                	ld	a5,48(sp)
    10011f42:	67dc                	ld	a5,136(a5)
    10011f44:	00178713          	addi	a4,a5,1
    10011f48:	77c2                	ld	a5,48(sp)
    10011f4a:	e7d8                	sd	a4,136(a5)
    10011f4c:	4785                	li	a5,1
    10011f4e:	fc3e                	sd	a5,56(sp)
    10011f50:	a011                	j	10011f54 <xQueueReceiveFromISR+0x92>
    10011f52:	fc02                	sd	zero,56(sp)
    10011f54:	77a2                	ld	a5,40(sp)
    10011f56:	2781                	sext.w	a5,a5
    10011f58:	853e                	mv	a0,a5
    10011f5a:	e50ff0ef          	jal	ra,100115aa <vPortClearInterruptMask>
    10011f5e:	77e2                	ld	a5,56(sp)
    10011f60:	853e                	mv	a0,a5
    10011f62:	60a6                	ld	ra,72(sp)
    10011f64:	6161                	addi	sp,sp,80
    10011f66:	8082                	ret

0000000010011f68 <xQueuePeekFromISR>:
    10011f68:	7139                	addi	sp,sp,-64
    10011f6a:	fc06                	sd	ra,56(sp)
    10011f6c:	e42a                	sd	a0,8(sp)
    10011f6e:	e02e                	sd	a1,0(sp)
    10011f70:	67a2                	ld	a5,8(sp)
    10011f72:	f03e                	sd	a5,32(sp)
    10011f74:	7782                	ld	a5,32(sp)
    10011f76:	e781                	bnez	a5,10011f7e <xQueuePeekFromISR+0x16>
    10011f78:	3000f073          	csrci	mstatus,1
    10011f7c:	a001                	j	10011f7c <xQueuePeekFromISR+0x14>
    10011f7e:	6782                	ld	a5,0(sp)
    10011f80:	e781                	bnez	a5,10011f88 <xQueuePeekFromISR+0x20>
    10011f82:	7782                	ld	a5,32(sp)
    10011f84:	63dc                	ld	a5,128(a5)
    10011f86:	e399                	bnez	a5,10011f8c <xQueuePeekFromISR+0x24>
    10011f88:	4785                	li	a5,1
    10011f8a:	a011                	j	10011f8e <xQueuePeekFromISR+0x26>
    10011f8c:	4781                	li	a5,0
    10011f8e:	e781                	bnez	a5,10011f96 <xQueuePeekFromISR+0x2e>
    10011f90:	3000f073          	csrci	mstatus,1
    10011f94:	a001                	j	10011f94 <xQueuePeekFromISR+0x2c>
    10011f96:	7782                	ld	a5,32(sp)
    10011f98:	63dc                	ld	a5,128(a5)
    10011f9a:	e781                	bnez	a5,10011fa2 <xQueuePeekFromISR+0x3a>
    10011f9c:	3000f073          	csrci	mstatus,1
    10011fa0:	a001                	j	10011fa0 <xQueuePeekFromISR+0x38>
    10011fa2:	e1aff0ef          	jal	ra,100115bc <vPortSetInterruptMask>
    10011fa6:	87aa                	mv	a5,a0
    10011fa8:	ec3e                	sd	a5,24(sp)
    10011faa:	7782                	ld	a5,32(sp)
    10011fac:	7bbc                	ld	a5,112(a5)
    10011fae:	cf91                	beqz	a5,10011fca <xQueuePeekFromISR+0x62>
    10011fb0:	7782                	ld	a5,32(sp)
    10011fb2:	6f9c                	ld	a5,24(a5)
    10011fb4:	e83e                	sd	a5,16(sp)
    10011fb6:	6582                	ld	a1,0(sp)
    10011fb8:	7502                	ld	a0,32(sp)
    10011fba:	1ce000ef          	jal	ra,10012188 <prvCopyDataFromQueue>
    10011fbe:	7782                	ld	a5,32(sp)
    10011fc0:	6742                	ld	a4,16(sp)
    10011fc2:	ef98                	sd	a4,24(a5)
    10011fc4:	4785                	li	a5,1
    10011fc6:	f43e                	sd	a5,40(sp)
    10011fc8:	a011                	j	10011fcc <xQueuePeekFromISR+0x64>
    10011fca:	f402                	sd	zero,40(sp)
    10011fcc:	67e2                	ld	a5,24(sp)
    10011fce:	2781                	sext.w	a5,a5
    10011fd0:	853e                	mv	a0,a5
    10011fd2:	dd8ff0ef          	jal	ra,100115aa <vPortClearInterruptMask>
    10011fd6:	77a2                	ld	a5,40(sp)
    10011fd8:	853e                	mv	a0,a5
    10011fda:	70e2                	ld	ra,56(sp)
    10011fdc:	6121                	addi	sp,sp,64
    10011fde:	8082                	ret

0000000010011fe0 <uxQueueMessagesWaiting>:
    10011fe0:	7179                	addi	sp,sp,-48
    10011fe2:	f406                	sd	ra,40(sp)
    10011fe4:	e42a                	sd	a0,8(sp)
    10011fe6:	67a2                	ld	a5,8(sp)
    10011fe8:	e781                	bnez	a5,10011ff0 <uxQueueMessagesWaiting+0x10>
    10011fea:	3000f073          	csrci	mstatus,1
    10011fee:	a001                	j	10011fee <uxQueueMessagesWaiting+0xe>
    10011ff0:	551010ef          	jal	ra,10013d40 <vTaskEnterCritical>
    10011ff4:	67a2                	ld	a5,8(sp)
    10011ff6:	7bbc                	ld	a5,112(a5)
    10011ff8:	ec3e                	sd	a5,24(sp)
    10011ffa:	56f010ef          	jal	ra,10013d68 <vTaskExitCritical>
    10011ffe:	67e2                	ld	a5,24(sp)
    10012000:	853e                	mv	a0,a5
    10012002:	70a2                	ld	ra,40(sp)
    10012004:	6145                	addi	sp,sp,48
    10012006:	8082                	ret

0000000010012008 <uxQueueSpacesAvailable>:
    10012008:	7179                	addi	sp,sp,-48
    1001200a:	f406                	sd	ra,40(sp)
    1001200c:	e42a                	sd	a0,8(sp)
    1001200e:	67a2                	ld	a5,8(sp)
    10012010:	ec3e                	sd	a5,24(sp)
    10012012:	67e2                	ld	a5,24(sp)
    10012014:	e781                	bnez	a5,1001201c <uxQueueSpacesAvailable+0x14>
    10012016:	3000f073          	csrci	mstatus,1
    1001201a:	a001                	j	1001201a <uxQueueSpacesAvailable+0x12>
    1001201c:	525010ef          	jal	ra,10013d40 <vTaskEnterCritical>
    10012020:	67e2                	ld	a5,24(sp)
    10012022:	7fb8                	ld	a4,120(a5)
    10012024:	67e2                	ld	a5,24(sp)
    10012026:	7bbc                	ld	a5,112(a5)
    10012028:	40f707b3          	sub	a5,a4,a5
    1001202c:	e83e                	sd	a5,16(sp)
    1001202e:	53b010ef          	jal	ra,10013d68 <vTaskExitCritical>
    10012032:	67c2                	ld	a5,16(sp)
    10012034:	853e                	mv	a0,a5
    10012036:	70a2                	ld	ra,40(sp)
    10012038:	6145                	addi	sp,sp,48
    1001203a:	8082                	ret

000000001001203c <uxQueueMessagesWaitingFromISR>:
    1001203c:	1101                	addi	sp,sp,-32
    1001203e:	e42a                	sd	a0,8(sp)
    10012040:	67a2                	ld	a5,8(sp)
    10012042:	e781                	bnez	a5,1001204a <uxQueueMessagesWaitingFromISR+0xe>
    10012044:	3000f073          	csrci	mstatus,1
    10012048:	a001                	j	10012048 <uxQueueMessagesWaitingFromISR+0xc>
    1001204a:	67a2                	ld	a5,8(sp)
    1001204c:	7bbc                	ld	a5,112(a5)
    1001204e:	ec3e                	sd	a5,24(sp)
    10012050:	67e2                	ld	a5,24(sp)
    10012052:	853e                	mv	a0,a5
    10012054:	6105                	addi	sp,sp,32
    10012056:	8082                	ret

0000000010012058 <vQueueDelete>:
    10012058:	7179                	addi	sp,sp,-48
    1001205a:	f406                	sd	ra,40(sp)
    1001205c:	e42a                	sd	a0,8(sp)
    1001205e:	67a2                	ld	a5,8(sp)
    10012060:	ec3e                	sd	a5,24(sp)
    10012062:	67e2                	ld	a5,24(sp)
    10012064:	e781                	bnez	a5,1001206c <vQueueDelete+0x14>
    10012066:	3000f073          	csrci	mstatus,1
    1001206a:	a001                	j	1001206a <vQueueDelete+0x12>
    1001206c:	6562                	ld	a0,24(sp)
    1001206e:	2ee000ef          	jal	ra,1001235c <vQueueUnregisterQueue>
    10012072:	6562                	ld	a0,24(sp)
    10012074:	0ac030ef          	jal	ra,10015120 <vPortFree>
    10012078:	0001                	nop
    1001207a:	70a2                	ld	ra,40(sp)
    1001207c:	6145                	addi	sp,sp,48
    1001207e:	8082                	ret

0000000010012080 <uxQueueGetQueueNumber>:
    10012080:	1141                	addi	sp,sp,-16
    10012082:	e42a                	sd	a0,8(sp)
    10012084:	67a2                	ld	a5,8(sp)
    10012086:	6fdc                	ld	a5,152(a5)
    10012088:	853e                	mv	a0,a5
    1001208a:	0141                	addi	sp,sp,16
    1001208c:	8082                	ret

000000001001208e <vQueueSetQueueNumber>:
    1001208e:	1141                	addi	sp,sp,-16
    10012090:	e42a                	sd	a0,8(sp)
    10012092:	e02e                	sd	a1,0(sp)
    10012094:	67a2                	ld	a5,8(sp)
    10012096:	6702                	ld	a4,0(sp)
    10012098:	efd8                	sd	a4,152(a5)
    1001209a:	0001                	nop
    1001209c:	0141                	addi	sp,sp,16
    1001209e:	8082                	ret

00000000100120a0 <ucQueueGetQueueType>:
    100120a0:	1141                	addi	sp,sp,-16
    100120a2:	e42a                	sd	a0,8(sp)
    100120a4:	67a2                	ld	a5,8(sp)
    100120a6:	0a07c783          	lbu	a5,160(a5)
    100120aa:	853e                	mv	a0,a5
    100120ac:	0141                	addi	sp,sp,16
    100120ae:	8082                	ret

00000000100120b0 <prvCopyDataToQueue>:
    100120b0:	7139                	addi	sp,sp,-64
    100120b2:	fc06                	sd	ra,56(sp)
    100120b4:	ec2a                	sd	a0,24(sp)
    100120b6:	e82e                	sd	a1,16(sp)
    100120b8:	e432                	sd	a2,8(sp)
    100120ba:	f402                	sd	zero,40(sp)
    100120bc:	67e2                	ld	a5,24(sp)
    100120be:	63dc                	ld	a5,128(a5)
    100120c0:	ef91                	bnez	a5,100120dc <prvCopyDataToQueue+0x2c>
    100120c2:	67e2                	ld	a5,24(sp)
    100120c4:	639c                	ld	a5,0(a5)
    100120c6:	e7d5                	bnez	a5,10012172 <prvCopyDataToQueue+0xc2>
    100120c8:	67e2                	ld	a5,24(sp)
    100120ca:	679c                	ld	a5,8(a5)
    100120cc:	853e                	mv	a0,a5
    100120ce:	3b3010ef          	jal	ra,10013c80 <xTaskPriorityDisinherit>
    100120d2:	f42a                	sd	a0,40(sp)
    100120d4:	67e2                	ld	a5,24(sp)
    100120d6:	0007b423          	sd	zero,8(a5)
    100120da:	a861                	j	10012172 <prvCopyDataToQueue+0xc2>
    100120dc:	67a2                	ld	a5,8(sp)
    100120de:	ef85                	bnez	a5,10012116 <prvCopyDataToQueue+0x66>
    100120e0:	67e2                	ld	a5,24(sp)
    100120e2:	6b98                	ld	a4,16(a5)
    100120e4:	67e2                	ld	a5,24(sp)
    100120e6:	63dc                	ld	a5,128(a5)
    100120e8:	863e                	mv	a2,a5
    100120ea:	65c2                	ld	a1,16(sp)
    100120ec:	853a                	mv	a0,a4
    100120ee:	622040ef          	jal	ra,10016710 <memcpy>
    100120f2:	67e2                	ld	a5,24(sp)
    100120f4:	6b98                	ld	a4,16(a5)
    100120f6:	67e2                	ld	a5,24(sp)
    100120f8:	63dc                	ld	a5,128(a5)
    100120fa:	973e                	add	a4,a4,a5
    100120fc:	67e2                	ld	a5,24(sp)
    100120fe:	eb98                	sd	a4,16(a5)
    10012100:	67e2                	ld	a5,24(sp)
    10012102:	6b98                	ld	a4,16(a5)
    10012104:	67e2                	ld	a5,24(sp)
    10012106:	679c                	ld	a5,8(a5)
    10012108:	06f76563          	bltu	a4,a5,10012172 <prvCopyDataToQueue+0xc2>
    1001210c:	67e2                	ld	a5,24(sp)
    1001210e:	6398                	ld	a4,0(a5)
    10012110:	67e2                	ld	a5,24(sp)
    10012112:	eb98                	sd	a4,16(a5)
    10012114:	a8b9                	j	10012172 <prvCopyDataToQueue+0xc2>
    10012116:	67e2                	ld	a5,24(sp)
    10012118:	6f98                	ld	a4,24(a5)
    1001211a:	67e2                	ld	a5,24(sp)
    1001211c:	63dc                	ld	a5,128(a5)
    1001211e:	863e                	mv	a2,a5
    10012120:	65c2                	ld	a1,16(sp)
    10012122:	853a                	mv	a0,a4
    10012124:	5ec040ef          	jal	ra,10016710 <memcpy>
    10012128:	67e2                	ld	a5,24(sp)
    1001212a:	6f98                	ld	a4,24(a5)
    1001212c:	67e2                	ld	a5,24(sp)
    1001212e:	63dc                	ld	a5,128(a5)
    10012130:	40f007b3          	neg	a5,a5
    10012134:	973e                	add	a4,a4,a5
    10012136:	67e2                	ld	a5,24(sp)
    10012138:	ef98                	sd	a4,24(a5)
    1001213a:	67e2                	ld	a5,24(sp)
    1001213c:	6f98                	ld	a4,24(a5)
    1001213e:	67e2                	ld	a5,24(sp)
    10012140:	639c                	ld	a5,0(a5)
    10012142:	00f77b63          	bgeu	a4,a5,10012158 <prvCopyDataToQueue+0xa8>
    10012146:	67e2                	ld	a5,24(sp)
    10012148:	6798                	ld	a4,8(a5)
    1001214a:	67e2                	ld	a5,24(sp)
    1001214c:	63dc                	ld	a5,128(a5)
    1001214e:	40f007b3          	neg	a5,a5
    10012152:	973e                	add	a4,a4,a5
    10012154:	67e2                	ld	a5,24(sp)
    10012156:	ef98                	sd	a4,24(a5)
    10012158:	6722                	ld	a4,8(sp)
    1001215a:	4789                	li	a5,2
    1001215c:	00f71b63          	bne	a4,a5,10012172 <prvCopyDataToQueue+0xc2>
    10012160:	67e2                	ld	a5,24(sp)
    10012162:	7bbc                	ld	a5,112(a5)
    10012164:	c799                	beqz	a5,10012172 <prvCopyDataToQueue+0xc2>
    10012166:	67e2                	ld	a5,24(sp)
    10012168:	7bbc                	ld	a5,112(a5)
    1001216a:	fff78713          	addi	a4,a5,-1
    1001216e:	67e2                	ld	a5,24(sp)
    10012170:	fbb8                	sd	a4,112(a5)
    10012172:	67e2                	ld	a5,24(sp)
    10012174:	7bbc                	ld	a5,112(a5)
    10012176:	00178713          	addi	a4,a5,1
    1001217a:	67e2                	ld	a5,24(sp)
    1001217c:	fbb8                	sd	a4,112(a5)
    1001217e:	77a2                	ld	a5,40(sp)
    10012180:	853e                	mv	a0,a5
    10012182:	70e2                	ld	ra,56(sp)
    10012184:	6121                	addi	sp,sp,64
    10012186:	8082                	ret

0000000010012188 <prvCopyDataFromQueue>:
    10012188:	1101                	addi	sp,sp,-32
    1001218a:	ec06                	sd	ra,24(sp)
    1001218c:	e42a                	sd	a0,8(sp)
    1001218e:	e02e                	sd	a1,0(sp)
    10012190:	67a2                	ld	a5,8(sp)
    10012192:	63dc                	ld	a5,128(a5)
    10012194:	cb9d                	beqz	a5,100121ca <prvCopyDataFromQueue+0x42>
    10012196:	67a2                	ld	a5,8(sp)
    10012198:	6f98                	ld	a4,24(a5)
    1001219a:	67a2                	ld	a5,8(sp)
    1001219c:	63dc                	ld	a5,128(a5)
    1001219e:	973e                	add	a4,a4,a5
    100121a0:	67a2                	ld	a5,8(sp)
    100121a2:	ef98                	sd	a4,24(a5)
    100121a4:	67a2                	ld	a5,8(sp)
    100121a6:	6f98                	ld	a4,24(a5)
    100121a8:	67a2                	ld	a5,8(sp)
    100121aa:	679c                	ld	a5,8(a5)
    100121ac:	00f76663          	bltu	a4,a5,100121b8 <prvCopyDataFromQueue+0x30>
    100121b0:	67a2                	ld	a5,8(sp)
    100121b2:	6398                	ld	a4,0(a5)
    100121b4:	67a2                	ld	a5,8(sp)
    100121b6:	ef98                	sd	a4,24(a5)
    100121b8:	67a2                	ld	a5,8(sp)
    100121ba:	6f98                	ld	a4,24(a5)
    100121bc:	67a2                	ld	a5,8(sp)
    100121be:	63dc                	ld	a5,128(a5)
    100121c0:	863e                	mv	a2,a5
    100121c2:	85ba                	mv	a1,a4
    100121c4:	6502                	ld	a0,0(sp)
    100121c6:	54a040ef          	jal	ra,10016710 <memcpy>
    100121ca:	0001                	nop
    100121cc:	60e2                	ld	ra,24(sp)
    100121ce:	6105                	addi	sp,sp,32
    100121d0:	8082                	ret

00000000100121d2 <prvUnlockQueue>:
    100121d2:	1101                	addi	sp,sp,-32
    100121d4:	ec06                	sd	ra,24(sp)
    100121d6:	e42a                	sd	a0,8(sp)
    100121d8:	369010ef          	jal	ra,10013d40 <vTaskEnterCritical>
    100121dc:	a025                	j	10012204 <prvUnlockQueue+0x32>
    100121de:	67a2                	ld	a5,8(sp)
    100121e0:	67bc                	ld	a5,72(a5)
    100121e2:	c795                	beqz	a5,1001220e <prvUnlockQueue+0x3c>
    100121e4:	67a2                	ld	a5,8(sp)
    100121e6:	04878793          	addi	a5,a5,72
    100121ea:	853e                	mv	a0,a5
    100121ec:	208010ef          	jal	ra,100133f4 <xTaskRemoveFromEventList>
    100121f0:	87aa                	mv	a5,a0
    100121f2:	c399                	beqz	a5,100121f8 <prvUnlockQueue+0x26>
    100121f4:	448010ef          	jal	ra,1001363c <vTaskMissedYield>
    100121f8:	67a2                	ld	a5,8(sp)
    100121fa:	6bdc                	ld	a5,144(a5)
    100121fc:	fff78713          	addi	a4,a5,-1
    10012200:	67a2                	ld	a5,8(sp)
    10012202:	ebd8                	sd	a4,144(a5)
    10012204:	67a2                	ld	a5,8(sp)
    10012206:	6bdc                	ld	a5,144(a5)
    10012208:	fcf04be3          	bgtz	a5,100121de <prvUnlockQueue+0xc>
    1001220c:	a011                	j	10012210 <prvUnlockQueue+0x3e>
    1001220e:	0001                	nop
    10012210:	67a2                	ld	a5,8(sp)
    10012212:	577d                	li	a4,-1
    10012214:	ebd8                	sd	a4,144(a5)
    10012216:	353010ef          	jal	ra,10013d68 <vTaskExitCritical>
    1001221a:	327010ef          	jal	ra,10013d40 <vTaskEnterCritical>
    1001221e:	a025                	j	10012246 <prvUnlockQueue+0x74>
    10012220:	67a2                	ld	a5,8(sp)
    10012222:	739c                	ld	a5,32(a5)
    10012224:	c795                	beqz	a5,10012250 <prvUnlockQueue+0x7e>
    10012226:	67a2                	ld	a5,8(sp)
    10012228:	02078793          	addi	a5,a5,32
    1001222c:	853e                	mv	a0,a5
    1001222e:	1c6010ef          	jal	ra,100133f4 <xTaskRemoveFromEventList>
    10012232:	87aa                	mv	a5,a0
    10012234:	c399                	beqz	a5,1001223a <prvUnlockQueue+0x68>
    10012236:	406010ef          	jal	ra,1001363c <vTaskMissedYield>
    1001223a:	67a2                	ld	a5,8(sp)
    1001223c:	67dc                	ld	a5,136(a5)
    1001223e:	fff78713          	addi	a4,a5,-1
    10012242:	67a2                	ld	a5,8(sp)
    10012244:	e7d8                	sd	a4,136(a5)
    10012246:	67a2                	ld	a5,8(sp)
    10012248:	67dc                	ld	a5,136(a5)
    1001224a:	fcf04be3          	bgtz	a5,10012220 <prvUnlockQueue+0x4e>
    1001224e:	a011                	j	10012252 <prvUnlockQueue+0x80>
    10012250:	0001                	nop
    10012252:	67a2                	ld	a5,8(sp)
    10012254:	577d                	li	a4,-1
    10012256:	e7d8                	sd	a4,136(a5)
    10012258:	311010ef          	jal	ra,10013d68 <vTaskExitCritical>
    1001225c:	0001                	nop
    1001225e:	60e2                	ld	ra,24(sp)
    10012260:	6105                	addi	sp,sp,32
    10012262:	8082                	ret

0000000010012264 <prvIsQueueEmpty>:
    10012264:	7179                	addi	sp,sp,-48
    10012266:	f406                	sd	ra,40(sp)
    10012268:	e42a                	sd	a0,8(sp)
    1001226a:	2d7010ef          	jal	ra,10013d40 <vTaskEnterCritical>
    1001226e:	67a2                	ld	a5,8(sp)
    10012270:	7bbc                	ld	a5,112(a5)
    10012272:	e781                	bnez	a5,1001227a <prvIsQueueEmpty+0x16>
    10012274:	4785                	li	a5,1
    10012276:	ec3e                	sd	a5,24(sp)
    10012278:	a011                	j	1001227c <prvIsQueueEmpty+0x18>
    1001227a:	ec02                	sd	zero,24(sp)
    1001227c:	2ed010ef          	jal	ra,10013d68 <vTaskExitCritical>
    10012280:	67e2                	ld	a5,24(sp)
    10012282:	853e                	mv	a0,a5
    10012284:	70a2                	ld	ra,40(sp)
    10012286:	6145                	addi	sp,sp,48
    10012288:	8082                	ret

000000001001228a <xQueueIsQueueEmptyFromISR>:
    1001228a:	1101                	addi	sp,sp,-32
    1001228c:	e42a                	sd	a0,8(sp)
    1001228e:	67a2                	ld	a5,8(sp)
    10012290:	e781                	bnez	a5,10012298 <xQueueIsQueueEmptyFromISR+0xe>
    10012292:	3000f073          	csrci	mstatus,1
    10012296:	a001                	j	10012296 <xQueueIsQueueEmptyFromISR+0xc>
    10012298:	67a2                	ld	a5,8(sp)
    1001229a:	7bbc                	ld	a5,112(a5)
    1001229c:	e781                	bnez	a5,100122a4 <xQueueIsQueueEmptyFromISR+0x1a>
    1001229e:	4785                	li	a5,1
    100122a0:	ec3e                	sd	a5,24(sp)
    100122a2:	a011                	j	100122a6 <xQueueIsQueueEmptyFromISR+0x1c>
    100122a4:	ec02                	sd	zero,24(sp)
    100122a6:	67e2                	ld	a5,24(sp)
    100122a8:	853e                	mv	a0,a5
    100122aa:	6105                	addi	sp,sp,32
    100122ac:	8082                	ret

00000000100122ae <prvIsQueueFull>:
    100122ae:	7179                	addi	sp,sp,-48
    100122b0:	f406                	sd	ra,40(sp)
    100122b2:	e42a                	sd	a0,8(sp)
    100122b4:	28d010ef          	jal	ra,10013d40 <vTaskEnterCritical>
    100122b8:	67a2                	ld	a5,8(sp)
    100122ba:	7bb8                	ld	a4,112(a5)
    100122bc:	67a2                	ld	a5,8(sp)
    100122be:	7fbc                	ld	a5,120(a5)
    100122c0:	00f71563          	bne	a4,a5,100122ca <prvIsQueueFull+0x1c>
    100122c4:	4785                	li	a5,1
    100122c6:	ec3e                	sd	a5,24(sp)
    100122c8:	a011                	j	100122cc <prvIsQueueFull+0x1e>
    100122ca:	ec02                	sd	zero,24(sp)
    100122cc:	29d010ef          	jal	ra,10013d68 <vTaskExitCritical>
    100122d0:	67e2                	ld	a5,24(sp)
    100122d2:	853e                	mv	a0,a5
    100122d4:	70a2                	ld	ra,40(sp)
    100122d6:	6145                	addi	sp,sp,48
    100122d8:	8082                	ret

00000000100122da <xQueueIsQueueFullFromISR>:
    100122da:	1101                	addi	sp,sp,-32
    100122dc:	e42a                	sd	a0,8(sp)
    100122de:	67a2                	ld	a5,8(sp)
    100122e0:	e781                	bnez	a5,100122e8 <xQueueIsQueueFullFromISR+0xe>
    100122e2:	3000f073          	csrci	mstatus,1
    100122e6:	a001                	j	100122e6 <xQueueIsQueueFullFromISR+0xc>
    100122e8:	67a2                	ld	a5,8(sp)
    100122ea:	7bb8                	ld	a4,112(a5)
    100122ec:	67a2                	ld	a5,8(sp)
    100122ee:	7fbc                	ld	a5,120(a5)
    100122f0:	00f71563          	bne	a4,a5,100122fa <xQueueIsQueueFullFromISR+0x20>
    100122f4:	4785                	li	a5,1
    100122f6:	ec3e                	sd	a5,24(sp)
    100122f8:	a011                	j	100122fc <xQueueIsQueueFullFromISR+0x22>
    100122fa:	ec02                	sd	zero,24(sp)
    100122fc:	67e2                	ld	a5,24(sp)
    100122fe:	853e                	mv	a0,a5
    10012300:	6105                	addi	sp,sp,32
    10012302:	8082                	ret

0000000010012304 <vQueueAddToRegistry>:
    10012304:	1101                	addi	sp,sp,-32
    10012306:	e42a                	sd	a0,8(sp)
    10012308:	e02e                	sd	a1,0(sp)
    1001230a:	ec02                	sd	zero,24(sp)
    1001230c:	a081                	j	1001234c <vQueueAddToRegistry+0x48>
    1001230e:	1006a7b7          	lui	a5,0x1006a
    10012312:	86878713          	addi	a4,a5,-1944 # 10069868 <xQueueRegistry>
    10012316:	67e2                	ld	a5,24(sp)
    10012318:	0792                	slli	a5,a5,0x4
    1001231a:	97ba                	add	a5,a5,a4
    1001231c:	639c                	ld	a5,0(a5)
    1001231e:	e785                	bnez	a5,10012346 <vQueueAddToRegistry+0x42>
    10012320:	1006a7b7          	lui	a5,0x1006a
    10012324:	86878713          	addi	a4,a5,-1944 # 10069868 <xQueueRegistry>
    10012328:	67e2                	ld	a5,24(sp)
    1001232a:	0792                	slli	a5,a5,0x4
    1001232c:	97ba                	add	a5,a5,a4
    1001232e:	6702                	ld	a4,0(sp)
    10012330:	e398                	sd	a4,0(a5)
    10012332:	1006a7b7          	lui	a5,0x1006a
    10012336:	86878713          	addi	a4,a5,-1944 # 10069868 <xQueueRegistry>
    1001233a:	67e2                	ld	a5,24(sp)
    1001233c:	0792                	slli	a5,a5,0x4
    1001233e:	97ba                	add	a5,a5,a4
    10012340:	6722                	ld	a4,8(sp)
    10012342:	e798                	sd	a4,8(a5)
    10012344:	a809                	j	10012356 <vQueueAddToRegistry+0x52>
    10012346:	67e2                	ld	a5,24(sp)
    10012348:	0785                	addi	a5,a5,1
    1001234a:	ec3e                	sd	a5,24(sp)
    1001234c:	6762                	ld	a4,24(sp)
    1001234e:	479d                	li	a5,7
    10012350:	fae7ffe3          	bgeu	a5,a4,1001230e <vQueueAddToRegistry+0xa>
    10012354:	0001                	nop
    10012356:	0001                	nop
    10012358:	6105                	addi	sp,sp,32
    1001235a:	8082                	ret

000000001001235c <vQueueUnregisterQueue>:
    1001235c:	1101                	addi	sp,sp,-32
    1001235e:	e42a                	sd	a0,8(sp)
    10012360:	ec02                	sd	zero,24(sp)
    10012362:	a80d                	j	10012394 <vQueueUnregisterQueue+0x38>
    10012364:	1006a7b7          	lui	a5,0x1006a
    10012368:	86878713          	addi	a4,a5,-1944 # 10069868 <xQueueRegistry>
    1001236c:	67e2                	ld	a5,24(sp)
    1001236e:	0792                	slli	a5,a5,0x4
    10012370:	97ba                	add	a5,a5,a4
    10012372:	679c                	ld	a5,8(a5)
    10012374:	6722                	ld	a4,8(sp)
    10012376:	00f71c63          	bne	a4,a5,1001238e <vQueueUnregisterQueue+0x32>
    1001237a:	1006a7b7          	lui	a5,0x1006a
    1001237e:	86878713          	addi	a4,a5,-1944 # 10069868 <xQueueRegistry>
    10012382:	67e2                	ld	a5,24(sp)
    10012384:	0792                	slli	a5,a5,0x4
    10012386:	97ba                	add	a5,a5,a4
    10012388:	0007b023          	sd	zero,0(a5)
    1001238c:	a809                	j	1001239e <vQueueUnregisterQueue+0x42>
    1001238e:	67e2                	ld	a5,24(sp)
    10012390:	0785                	addi	a5,a5,1
    10012392:	ec3e                	sd	a5,24(sp)
    10012394:	6762                	ld	a4,24(sp)
    10012396:	479d                	li	a5,7
    10012398:	fce7f6e3          	bgeu	a5,a4,10012364 <vQueueUnregisterQueue+0x8>
    1001239c:	0001                	nop
    1001239e:	0001                	nop
    100123a0:	6105                	addi	sp,sp,32
    100123a2:	8082                	ret

00000000100123a4 <vQueueWaitForMessageRestricted>:
    100123a4:	7139                	addi	sp,sp,-64
    100123a6:	fc06                	sd	ra,56(sp)
    100123a8:	ec2a                	sd	a0,24(sp)
    100123aa:	87ae                	mv	a5,a1
    100123ac:	e432                	sd	a2,8(sp)
    100123ae:	ca3e                	sw	a5,20(sp)
    100123b0:	67e2                	ld	a5,24(sp)
    100123b2:	f43e                	sd	a5,40(sp)
    100123b4:	18d010ef          	jal	ra,10013d40 <vTaskEnterCritical>
    100123b8:	77a2                	ld	a5,40(sp)
    100123ba:	67d8                	ld	a4,136(a5)
    100123bc:	57fd                	li	a5,-1
    100123be:	00f71563          	bne	a4,a5,100123c8 <vQueueWaitForMessageRestricted+0x24>
    100123c2:	77a2                	ld	a5,40(sp)
    100123c4:	0807b423          	sd	zero,136(a5)
    100123c8:	77a2                	ld	a5,40(sp)
    100123ca:	6bd8                	ld	a4,144(a5)
    100123cc:	57fd                	li	a5,-1
    100123ce:	00f71563          	bne	a4,a5,100123d8 <vQueueWaitForMessageRestricted+0x34>
    100123d2:	77a2                	ld	a5,40(sp)
    100123d4:	0807b823          	sd	zero,144(a5)
    100123d8:	191010ef          	jal	ra,10013d68 <vTaskExitCritical>
    100123dc:	77a2                	ld	a5,40(sp)
    100123de:	7bbc                	ld	a5,112(a5)
    100123e0:	eb91                	bnez	a5,100123f4 <vQueueWaitForMessageRestricted+0x50>
    100123e2:	77a2                	ld	a5,40(sp)
    100123e4:	04878793          	addi	a5,a5,72
    100123e8:	4752                	lw	a4,20(sp)
    100123ea:	6622                	ld	a2,8(sp)
    100123ec:	85ba                	mv	a1,a4
    100123ee:	853e                	mv	a0,a5
    100123f0:	789000ef          	jal	ra,10013378 <vTaskPlaceOnEventListRestricted>
    100123f4:	7522                	ld	a0,40(sp)
    100123f6:	dddff0ef          	jal	ra,100121d2 <prvUnlockQueue>
    100123fa:	0001                	nop
    100123fc:	70e2                	ld	ra,56(sp)
    100123fe:	6121                	addi	sp,sp,64
    10012400:	8082                	ret

0000000010012402 <xTaskGenericCreate>:
    10012402:	7159                	addi	sp,sp,-112
    10012404:	f486                	sd	ra,104(sp)
    10012406:	fc2a                	sd	a0,56(sp)
    10012408:	f82e                	sd	a1,48(sp)
    1001240a:	f036                	sd	a3,32(sp)
    1001240c:	ec3a                	sd	a4,24(sp)
    1001240e:	e83e                	sd	a5,16(sp)
    10012410:	e442                	sd	a6,8(sp)
    10012412:	e046                	sd	a7,0(sp)
    10012414:	87b2                	mv	a5,a2
    10012416:	02f11723          	sh	a5,46(sp)
    1001241a:	77e2                	ld	a5,56(sp)
    1001241c:	e781                	bnez	a5,10012424 <xTaskGenericCreate+0x22>
    1001241e:	3000f073          	csrci	mstatus,1
    10012422:	a001                	j	10012422 <xTaskGenericCreate+0x20>
    10012424:	6762                	ld	a4,24(sp)
    10012426:	4791                	li	a5,4
    10012428:	00e7f563          	bgeu	a5,a4,10012432 <xTaskGenericCreate+0x30>
    1001242c:	3000f073          	csrci	mstatus,1
    10012430:	a001                	j	10012430 <xTaskGenericCreate+0x2e>
    10012432:	02e15783          	lhu	a5,46(sp)
    10012436:	65a2                	ld	a1,8(sp)
    10012438:	853e                	mv	a0,a5
    1001243a:	4c2010ef          	jal	ra,100138fc <prvAllocateTCBAndStack>
    1001243e:	e8aa                	sd	a0,80(sp)
    10012440:	67c6                	ld	a5,80(sp)
    10012442:	10078f63          	beqz	a5,10012560 <xTaskGenericCreate+0x15e>
    10012446:	67c6                	ld	a5,80(sp)
    10012448:	73b8                	ld	a4,96(a5)
    1001244a:	02e15783          	lhu	a5,46(sp)
    1001244e:	078e                	slli	a5,a5,0x3
    10012450:	17e1                	addi	a5,a5,-8
    10012452:	97ba                	add	a5,a5,a4
    10012454:	e4be                	sd	a5,72(sp)
    10012456:	67a6                	ld	a5,72(sp)
    10012458:	9be1                	andi	a5,a5,-8
    1001245a:	e4be                	sd	a5,72(sp)
    1001245c:	67a6                	ld	a5,72(sp)
    1001245e:	8b9d                	andi	a5,a5,7
    10012460:	c781                	beqz	a5,10012468 <xTaskGenericCreate+0x66>
    10012462:	3000f073          	csrci	mstatus,1
    10012466:	a001                	j	10012466 <xTaskGenericCreate+0x64>
    10012468:	02e15783          	lhu	a5,46(sp)
    1001246c:	873e                	mv	a4,a5
    1001246e:	6682                	ld	a3,0(sp)
    10012470:	6662                	ld	a2,24(sp)
    10012472:	75c2                	ld	a1,48(sp)
    10012474:	6546                	ld	a0,80(sp)
    10012476:	22c010ef          	jal	ra,100136a2 <prvInitialiseTCBVariables>
    1001247a:	7602                	ld	a2,32(sp)
    1001247c:	75e2                	ld	a1,56(sp)
    1001247e:	6526                	ld	a0,72(sp)
    10012480:	950ff0ef          	jal	ra,100115d0 <pxPortInitialiseStack>
    10012484:	872a                	mv	a4,a0
    10012486:	67c6                	ld	a5,80(sp)
    10012488:	e398                	sd	a4,0(a5)
    1001248a:	67c2                	ld	a5,16(sp)
    1001248c:	c781                	beqz	a5,10012494 <xTaskGenericCreate+0x92>
    1001248e:	67c2                	ld	a5,16(sp)
    10012490:	6746                	ld	a4,80(sp)
    10012492:	e398                	sd	a4,0(a5)
    10012494:	0ad010ef          	jal	ra,10013d40 <vTaskEnterCritical>
    10012498:	100507b7          	lui	a5,0x10050
    1001249c:	5e07b783          	ld	a5,1504(a5) # 100505e0 <uxCurrentNumberOfTasks>
    100124a0:	00178713          	addi	a4,a5,1
    100124a4:	100507b7          	lui	a5,0x10050
    100124a8:	5ee7b023          	sd	a4,1504(a5) # 100505e0 <uxCurrentNumberOfTasks>
    100124ac:	100507b7          	lui	a5,0x10050
    100124b0:	3107b783          	ld	a5,784(a5) # 10050310 <pxCurrentTCB>
    100124b4:	e385                	bnez	a5,100124d4 <xTaskGenericCreate+0xd2>
    100124b6:	100507b7          	lui	a5,0x10050
    100124ba:	6746                	ld	a4,80(sp)
    100124bc:	30e7b823          	sd	a4,784(a5) # 10050310 <pxCurrentTCB>
    100124c0:	100507b7          	lui	a5,0x10050
    100124c4:	5e07b703          	ld	a4,1504(a5) # 100505e0 <uxCurrentNumberOfTasks>
    100124c8:	4785                	li	a5,1
    100124ca:	02f71763          	bne	a4,a5,100124f8 <xTaskGenericCreate+0xf6>
    100124ce:	28e010ef          	jal	ra,1001375c <prvInitialiseTaskLists>
    100124d2:	a01d                	j	100124f8 <xTaskGenericCreate+0xf6>
    100124d4:	100507b7          	lui	a5,0x10050
    100124d8:	5f87b783          	ld	a5,1528(a5) # 100505f8 <xSchedulerRunning>
    100124dc:	ef91                	bnez	a5,100124f8 <xTaskGenericCreate+0xf6>
    100124de:	100507b7          	lui	a5,0x10050
    100124e2:	3107b783          	ld	a5,784(a5) # 10050310 <pxCurrentTCB>
    100124e6:	6fbc                	ld	a5,88(a5)
    100124e8:	6762                	ld	a4,24(sp)
    100124ea:	00f76763          	bltu	a4,a5,100124f8 <xTaskGenericCreate+0xf6>
    100124ee:	100507b7          	lui	a5,0x10050
    100124f2:	6746                	ld	a4,80(sp)
    100124f4:	30e7b823          	sd	a4,784(a5) # 10050310 <pxCurrentTCB>
    100124f8:	100507b7          	lui	a5,0x10050
    100124fc:	6187b783          	ld	a5,1560(a5) # 10050618 <uxTaskNumber>
    10012500:	00178713          	addi	a4,a5,1
    10012504:	100507b7          	lui	a5,0x10050
    10012508:	60e7bc23          	sd	a4,1560(a5) # 10050618 <uxTaskNumber>
    1001250c:	100507b7          	lui	a5,0x10050
    10012510:	6187b703          	ld	a4,1560(a5) # 10050618 <uxTaskNumber>
    10012514:	67c6                	ld	a5,80(sp)
    10012516:	e3d8                	sd	a4,128(a5)
    10012518:	67c6                	ld	a5,80(sp)
    1001251a:	6fb8                	ld	a4,88(a5)
    1001251c:	100507b7          	lui	a5,0x10050
    10012520:	5f07b783          	ld	a5,1520(a5) # 100505f0 <uxTopReadyPriority>
    10012524:	00e7f863          	bgeu	a5,a4,10012534 <xTaskGenericCreate+0x132>
    10012528:	67c6                	ld	a5,80(sp)
    1001252a:	6fb8                	ld	a4,88(a5)
    1001252c:	100507b7          	lui	a5,0x10050
    10012530:	5ee7b823          	sd	a4,1520(a5) # 100505f0 <uxTopReadyPriority>
    10012534:	67c6                	ld	a5,80(sp)
    10012536:	6fb8                	ld	a4,88(a5)
    10012538:	87ba                	mv	a5,a4
    1001253a:	078a                	slli	a5,a5,0x2
    1001253c:	97ba                	add	a5,a5,a4
    1001253e:	078e                	slli	a5,a5,0x3
    10012540:	10050737          	lui	a4,0x10050
    10012544:	43870713          	addi	a4,a4,1080 # 10050438 <pxReadyTasksLists>
    10012548:	973e                	add	a4,a4,a5
    1001254a:	67c6                	ld	a5,80(sp)
    1001254c:	07a1                	addi	a5,a5,8
    1001254e:	85be                	mv	a1,a5
    10012550:	853a                	mv	a0,a4
    10012552:	92aff0ef          	jal	ra,1001167c <vListInsertEnd>
    10012556:	4785                	li	a5,1
    10012558:	ecbe                	sd	a5,88(sp)
    1001255a:	00f010ef          	jal	ra,10013d68 <vTaskExitCritical>
    1001255e:	a019                	j	10012564 <xTaskGenericCreate+0x162>
    10012560:	57fd                	li	a5,-1
    10012562:	ecbe                	sd	a5,88(sp)
    10012564:	6766                	ld	a4,88(sp)
    10012566:	4785                	li	a5,1
    10012568:	02f71163          	bne	a4,a5,1001258a <xTaskGenericCreate+0x188>
    1001256c:	100507b7          	lui	a5,0x10050
    10012570:	5f87b783          	ld	a5,1528(a5) # 100505f8 <xSchedulerRunning>
    10012574:	cb99                	beqz	a5,1001258a <xTaskGenericCreate+0x188>
    10012576:	100507b7          	lui	a5,0x10050
    1001257a:	3107b783          	ld	a5,784(a5) # 10050310 <pxCurrentTCB>
    1001257e:	6fbc                	ld	a5,88(a5)
    10012580:	6762                	ld	a4,24(sp)
    10012582:	00e7f463          	bgeu	a5,a4,1001258a <xTaskGenericCreate+0x188>
    10012586:	f51fe0ef          	jal	ra,100114d6 <vPortYield>
    1001258a:	67e6                	ld	a5,88(sp)
    1001258c:	853e                	mv	a0,a5
    1001258e:	70a6                	ld	ra,104(sp)
    10012590:	6165                	addi	sp,sp,112
    10012592:	8082                	ret

0000000010012594 <vTaskDelete>:
    10012594:	7179                	addi	sp,sp,-48
    10012596:	f406                	sd	ra,40(sp)
    10012598:	e42a                	sd	a0,8(sp)
    1001259a:	7a6010ef          	jal	ra,10013d40 <vTaskEnterCritical>
    1001259e:	67a2                	ld	a5,8(sp)
    100125a0:	e791                	bnez	a5,100125ac <vTaskDelete+0x18>
    100125a2:	100507b7          	lui	a5,0x10050
    100125a6:	3107b783          	ld	a5,784(a5) # 10050310 <pxCurrentTCB>
    100125aa:	a011                	j	100125ae <vTaskDelete+0x1a>
    100125ac:	67a2                	ld	a5,8(sp)
    100125ae:	ec3e                	sd	a5,24(sp)
    100125b0:	67e2                	ld	a5,24(sp)
    100125b2:	07a1                	addi	a5,a5,8
    100125b4:	853e                	mv	a0,a5
    100125b6:	976ff0ef          	jal	ra,1001172c <uxListRemove>
    100125ba:	67e2                	ld	a5,24(sp)
    100125bc:	6bbc                	ld	a5,80(a5)
    100125be:	c799                	beqz	a5,100125cc <vTaskDelete+0x38>
    100125c0:	67e2                	ld	a5,24(sp)
    100125c2:	03078793          	addi	a5,a5,48
    100125c6:	853e                	mv	a0,a5
    100125c8:	964ff0ef          	jal	ra,1001172c <uxListRemove>
    100125cc:	67e2                	ld	a5,24(sp)
    100125ce:	07a1                	addi	a5,a5,8
    100125d0:	85be                	mv	a1,a5
    100125d2:	100507b7          	lui	a5,0x10050
    100125d6:	58878513          	addi	a0,a5,1416 # 10050588 <xTasksWaitingTermination>
    100125da:	8a2ff0ef          	jal	ra,1001167c <vListInsertEnd>
    100125de:	100507b7          	lui	a5,0x10050
    100125e2:	5b07b783          	ld	a5,1456(a5) # 100505b0 <uxTasksDeleted>
    100125e6:	00178713          	addi	a4,a5,1
    100125ea:	100507b7          	lui	a5,0x10050
    100125ee:	5ae7b823          	sd	a4,1456(a5) # 100505b0 <uxTasksDeleted>
    100125f2:	100507b7          	lui	a5,0x10050
    100125f6:	6187b783          	ld	a5,1560(a5) # 10050618 <uxTaskNumber>
    100125fa:	00178713          	addi	a4,a5,1
    100125fe:	100507b7          	lui	a5,0x10050
    10012602:	60e7bc23          	sd	a4,1560(a5) # 10050618 <uxTaskNumber>
    10012606:	762010ef          	jal	ra,10013d68 <vTaskExitCritical>
    1001260a:	100507b7          	lui	a5,0x10050
    1001260e:	5f87b783          	ld	a5,1528(a5) # 100505f8 <xSchedulerRunning>
    10012612:	cb8d                	beqz	a5,10012644 <vTaskDelete+0xb0>
    10012614:	100507b7          	lui	a5,0x10050
    10012618:	3107b783          	ld	a5,784(a5) # 10050310 <pxCurrentTCB>
    1001261c:	6762                	ld	a4,24(sp)
    1001261e:	00f71d63          	bne	a4,a5,10012638 <vTaskDelete+0xa4>
    10012622:	100507b7          	lui	a5,0x10050
    10012626:	6287b783          	ld	a5,1576(a5) # 10050628 <uxSchedulerSuspended>
    1001262a:	c781                	beqz	a5,10012632 <vTaskDelete+0x9e>
    1001262c:	3000f073          	csrci	mstatus,1
    10012630:	a001                	j	10012630 <vTaskDelete+0x9c>
    10012632:	ea5fe0ef          	jal	ra,100114d6 <vPortYield>
    10012636:	a039                	j	10012644 <vTaskDelete+0xb0>
    10012638:	708010ef          	jal	ra,10013d40 <vTaskEnterCritical>
    1001263c:	4ea010ef          	jal	ra,10013b26 <prvResetNextTaskUnblockTime>
    10012640:	728010ef          	jal	ra,10013d68 <vTaskExitCritical>
    10012644:	0001                	nop
    10012646:	70a2                	ld	ra,40(sp)
    10012648:	6145                	addi	sp,sp,48
    1001264a:	8082                	ret

000000001001264c <vTaskDelayUntil>:
    1001264c:	7139                	addi	sp,sp,-64
    1001264e:	fc06                	sd	ra,56(sp)
    10012650:	e42a                	sd	a0,8(sp)
    10012652:	87ae                	mv	a5,a1
    10012654:	c23e                	sw	a5,4(sp)
    10012656:	f402                	sd	zero,40(sp)
    10012658:	67a2                	ld	a5,8(sp)
    1001265a:	e781                	bnez	a5,10012662 <vTaskDelayUntil+0x16>
    1001265c:	3000f073          	csrci	mstatus,1
    10012660:	a001                	j	10012660 <vTaskDelayUntil+0x14>
    10012662:	4792                	lw	a5,4(sp)
    10012664:	2781                	sext.w	a5,a5
    10012666:	e781                	bnez	a5,1001266e <vTaskDelayUntil+0x22>
    10012668:	3000f073          	csrci	mstatus,1
    1001266c:	a001                	j	1001266c <vTaskDelayUntil+0x20>
    1001266e:	100507b7          	lui	a5,0x10050
    10012672:	6287b783          	ld	a5,1576(a5) # 10050628 <uxSchedulerSuspended>
    10012676:	c781                	beqz	a5,1001267e <vTaskDelayUntil+0x32>
    10012678:	3000f073          	csrci	mstatus,1
    1001267c:	a001                	j	1001267c <vTaskDelayUntil+0x30>
    1001267e:	646000ef          	jal	ra,10012cc4 <vTaskSuspendAll>
    10012682:	100507b7          	lui	a5,0x10050
    10012686:	5e87a783          	lw	a5,1512(a5) # 100505e8 <xTickCount>
    1001268a:	d23e                	sw	a5,36(sp)
    1001268c:	67a2                	ld	a5,8(sp)
    1001268e:	439c                	lw	a5,0(a5)
    10012690:	4712                	lw	a4,4(sp)
    10012692:	9fb9                	addw	a5,a5,a4
    10012694:	d03e                	sw	a5,32(sp)
    10012696:	67a2                	ld	a5,8(sp)
    10012698:	4398                	lw	a4,0(a5)
    1001269a:	5792                	lw	a5,36(sp)
    1001269c:	2781                	sext.w	a5,a5
    1001269e:	02e7f163          	bgeu	a5,a4,100126c0 <vTaskDelayUntil+0x74>
    100126a2:	67a2                	ld	a5,8(sp)
    100126a4:	4398                	lw	a4,0(a5)
    100126a6:	5782                	lw	a5,32(sp)
    100126a8:	2781                	sext.w	a5,a5
    100126aa:	02e7f963          	bgeu	a5,a4,100126dc <vTaskDelayUntil+0x90>
    100126ae:	5702                	lw	a4,32(sp)
    100126b0:	5792                	lw	a5,36(sp)
    100126b2:	2701                	sext.w	a4,a4
    100126b4:	2781                	sext.w	a5,a5
    100126b6:	02e7f363          	bgeu	a5,a4,100126dc <vTaskDelayUntil+0x90>
    100126ba:	4785                	li	a5,1
    100126bc:	f43e                	sd	a5,40(sp)
    100126be:	a839                	j	100126dc <vTaskDelayUntil+0x90>
    100126c0:	67a2                	ld	a5,8(sp)
    100126c2:	4398                	lw	a4,0(a5)
    100126c4:	5782                	lw	a5,32(sp)
    100126c6:	2781                	sext.w	a5,a5
    100126c8:	00e7e863          	bltu	a5,a4,100126d8 <vTaskDelayUntil+0x8c>
    100126cc:	5702                	lw	a4,32(sp)
    100126ce:	5792                	lw	a5,36(sp)
    100126d0:	2701                	sext.w	a4,a4
    100126d2:	2781                	sext.w	a5,a5
    100126d4:	00e7f463          	bgeu	a5,a4,100126dc <vTaskDelayUntil+0x90>
    100126d8:	4785                	li	a5,1
    100126da:	f43e                	sd	a5,40(sp)
    100126dc:	67a2                	ld	a5,8(sp)
    100126de:	5702                	lw	a4,32(sp)
    100126e0:	c398                	sw	a4,0(a5)
    100126e2:	77a2                	ld	a5,40(sp)
    100126e4:	cf89                	beqz	a5,100126fe <vTaskDelayUntil+0xb2>
    100126e6:	100507b7          	lui	a5,0x10050
    100126ea:	3107b783          	ld	a5,784(a5) # 10050310 <pxCurrentTCB>
    100126ee:	07a1                	addi	a5,a5,8
    100126f0:	853e                	mv	a0,a5
    100126f2:	83aff0ef          	jal	ra,1001172c <uxListRemove>
    100126f6:	5782                	lw	a5,32(sp)
    100126f8:	853e                	mv	a0,a5
    100126fa:	17e010ef          	jal	ra,10013878 <prvAddCurrentTaskToDelayedList>
    100126fe:	5de000ef          	jal	ra,10012cdc <xTaskResumeAll>
    10012702:	ec2a                	sd	a0,24(sp)
    10012704:	67e2                	ld	a5,24(sp)
    10012706:	e399                	bnez	a5,1001270c <vTaskDelayUntil+0xc0>
    10012708:	dcffe0ef          	jal	ra,100114d6 <vPortYield>
    1001270c:	0001                	nop
    1001270e:	70e2                	ld	ra,56(sp)
    10012710:	6121                	addi	sp,sp,64
    10012712:	8082                	ret

0000000010012714 <vTaskDelay>:
    10012714:	7179                	addi	sp,sp,-48
    10012716:	f406                	sd	ra,40(sp)
    10012718:	87aa                	mv	a5,a0
    1001271a:	c63e                	sw	a5,12(sp)
    1001271c:	ec02                	sd	zero,24(sp)
    1001271e:	47b2                	lw	a5,12(sp)
    10012720:	2781                	sext.w	a5,a5
    10012722:	c3b1                	beqz	a5,10012766 <vTaskDelay+0x52>
    10012724:	100507b7          	lui	a5,0x10050
    10012728:	6287b783          	ld	a5,1576(a5) # 10050628 <uxSchedulerSuspended>
    1001272c:	c781                	beqz	a5,10012734 <vTaskDelay+0x20>
    1001272e:	3000f073          	csrci	mstatus,1
    10012732:	a001                	j	10012732 <vTaskDelay+0x1e>
    10012734:	590000ef          	jal	ra,10012cc4 <vTaskSuspendAll>
    10012738:	100507b7          	lui	a5,0x10050
    1001273c:	5e87a783          	lw	a5,1512(a5) # 100505e8 <xTickCount>
    10012740:	2781                	sext.w	a5,a5
    10012742:	4732                	lw	a4,12(sp)
    10012744:	9fb9                	addw	a5,a5,a4
    10012746:	ca3e                	sw	a5,20(sp)
    10012748:	100507b7          	lui	a5,0x10050
    1001274c:	3107b783          	ld	a5,784(a5) # 10050310 <pxCurrentTCB>
    10012750:	07a1                	addi	a5,a5,8
    10012752:	853e                	mv	a0,a5
    10012754:	fd9fe0ef          	jal	ra,1001172c <uxListRemove>
    10012758:	47d2                	lw	a5,20(sp)
    1001275a:	853e                	mv	a0,a5
    1001275c:	11c010ef          	jal	ra,10013878 <prvAddCurrentTaskToDelayedList>
    10012760:	57c000ef          	jal	ra,10012cdc <xTaskResumeAll>
    10012764:	ec2a                	sd	a0,24(sp)
    10012766:	67e2                	ld	a5,24(sp)
    10012768:	e399                	bnez	a5,1001276e <vTaskDelay+0x5a>
    1001276a:	d6dfe0ef          	jal	ra,100114d6 <vPortYield>
    1001276e:	0001                	nop
    10012770:	70a2                	ld	ra,40(sp)
    10012772:	6145                	addi	sp,sp,48
    10012774:	8082                	ret

0000000010012776 <eTaskGetState>:
    10012776:	7139                	addi	sp,sp,-64
    10012778:	fc06                	sd	ra,56(sp)
    1001277a:	e42a                	sd	a0,8(sp)
    1001277c:	67a2                	ld	a5,8(sp)
    1001277e:	f03e                	sd	a5,32(sp)
    10012780:	7782                	ld	a5,32(sp)
    10012782:	e781                	bnez	a5,1001278a <eTaskGetState+0x14>
    10012784:	3000f073          	csrci	mstatus,1
    10012788:	a001                	j	10012788 <eTaskGetState+0x12>
    1001278a:	100507b7          	lui	a5,0x10050
    1001278e:	3107b783          	ld	a5,784(a5) # 10050310 <pxCurrentTCB>
    10012792:	7702                	ld	a4,32(sp)
    10012794:	00f71463          	bne	a4,a5,1001279c <eTaskGetState+0x26>
    10012798:	d602                	sw	zero,44(sp)
    1001279a:	a0ad                	j	10012804 <eTaskGetState+0x8e>
    1001279c:	5a4010ef          	jal	ra,10013d40 <vTaskEnterCritical>
    100127a0:	7782                	ld	a5,32(sp)
    100127a2:	779c                	ld	a5,40(a5)
    100127a4:	ec3e                	sd	a5,24(sp)
    100127a6:	5c2010ef          	jal	ra,10013d68 <vTaskExitCritical>
    100127aa:	100507b7          	lui	a5,0x10050
    100127ae:	5507b783          	ld	a5,1360(a5) # 10050550 <pxDelayedTaskList>
    100127b2:	6762                	ld	a4,24(sp)
    100127b4:	00f70963          	beq	a4,a5,100127c6 <eTaskGetState+0x50>
    100127b8:	100507b7          	lui	a5,0x10050
    100127bc:	5587b783          	ld	a5,1368(a5) # 10050558 <pxOverflowDelayedTaskList>
    100127c0:	6762                	ld	a4,24(sp)
    100127c2:	00f71563          	bne	a4,a5,100127cc <eTaskGetState+0x56>
    100127c6:	4789                	li	a5,2
    100127c8:	d63e                	sw	a5,44(sp)
    100127ca:	a82d                	j	10012804 <eTaskGetState+0x8e>
    100127cc:	6762                	ld	a4,24(sp)
    100127ce:	100507b7          	lui	a5,0x10050
    100127d2:	5b878793          	addi	a5,a5,1464 # 100505b8 <xSuspendedTaskList>
    100127d6:	00f71b63          	bne	a4,a5,100127ec <eTaskGetState+0x76>
    100127da:	7782                	ld	a5,32(sp)
    100127dc:	6bbc                	ld	a5,80(a5)
    100127de:	e781                	bnez	a5,100127e6 <eTaskGetState+0x70>
    100127e0:	478d                	li	a5,3
    100127e2:	d63e                	sw	a5,44(sp)
    100127e4:	a005                	j	10012804 <eTaskGetState+0x8e>
    100127e6:	4789                	li	a5,2
    100127e8:	d63e                	sw	a5,44(sp)
    100127ea:	a829                	j	10012804 <eTaskGetState+0x8e>
    100127ec:	6762                	ld	a4,24(sp)
    100127ee:	100507b7          	lui	a5,0x10050
    100127f2:	58878793          	addi	a5,a5,1416 # 10050588 <xTasksWaitingTermination>
    100127f6:	00f71563          	bne	a4,a5,10012800 <eTaskGetState+0x8a>
    100127fa:	4791                	li	a5,4
    100127fc:	d63e                	sw	a5,44(sp)
    100127fe:	a019                	j	10012804 <eTaskGetState+0x8e>
    10012800:	4785                	li	a5,1
    10012802:	d63e                	sw	a5,44(sp)
    10012804:	57b2                	lw	a5,44(sp)
    10012806:	853e                	mv	a0,a5
    10012808:	70e2                	ld	ra,56(sp)
    1001280a:	6121                	addi	sp,sp,64
    1001280c:	8082                	ret

000000001001280e <uxTaskPriorityGet>:
    1001280e:	7179                	addi	sp,sp,-48
    10012810:	f406                	sd	ra,40(sp)
    10012812:	e42a                	sd	a0,8(sp)
    10012814:	52c010ef          	jal	ra,10013d40 <vTaskEnterCritical>
    10012818:	67a2                	ld	a5,8(sp)
    1001281a:	e791                	bnez	a5,10012826 <uxTaskPriorityGet+0x18>
    1001281c:	100507b7          	lui	a5,0x10050
    10012820:	3107b783          	ld	a5,784(a5) # 10050310 <pxCurrentTCB>
    10012824:	a011                	j	10012828 <uxTaskPriorityGet+0x1a>
    10012826:	67a2                	ld	a5,8(sp)
    10012828:	ec3e                	sd	a5,24(sp)
    1001282a:	67e2                	ld	a5,24(sp)
    1001282c:	6fbc                	ld	a5,88(a5)
    1001282e:	e83e                	sd	a5,16(sp)
    10012830:	538010ef          	jal	ra,10013d68 <vTaskExitCritical>
    10012834:	67c2                	ld	a5,16(sp)
    10012836:	853e                	mv	a0,a5
    10012838:	70a2                	ld	ra,40(sp)
    1001283a:	6145                	addi	sp,sp,48
    1001283c:	8082                	ret

000000001001283e <uxTaskPriorityGetFromISR>:
    1001283e:	7139                	addi	sp,sp,-64
    10012840:	fc06                	sd	ra,56(sp)
    10012842:	e42a                	sd	a0,8(sp)
    10012844:	d79fe0ef          	jal	ra,100115bc <vPortSetInterruptMask>
    10012848:	87aa                	mv	a5,a0
    1001284a:	f43e                	sd	a5,40(sp)
    1001284c:	67a2                	ld	a5,8(sp)
    1001284e:	e791                	bnez	a5,1001285a <uxTaskPriorityGetFromISR+0x1c>
    10012850:	100507b7          	lui	a5,0x10050
    10012854:	3107b783          	ld	a5,784(a5) # 10050310 <pxCurrentTCB>
    10012858:	a011                	j	1001285c <uxTaskPriorityGetFromISR+0x1e>
    1001285a:	67a2                	ld	a5,8(sp)
    1001285c:	f03e                	sd	a5,32(sp)
    1001285e:	7782                	ld	a5,32(sp)
    10012860:	6fbc                	ld	a5,88(a5)
    10012862:	ec3e                	sd	a5,24(sp)
    10012864:	77a2                	ld	a5,40(sp)
    10012866:	2781                	sext.w	a5,a5
    10012868:	853e                	mv	a0,a5
    1001286a:	d41fe0ef          	jal	ra,100115aa <vPortClearInterruptMask>
    1001286e:	67e2                	ld	a5,24(sp)
    10012870:	853e                	mv	a0,a5
    10012872:	70e2                	ld	ra,56(sp)
    10012874:	6121                	addi	sp,sp,64
    10012876:	8082                	ret

0000000010012878 <vTaskPrioritySet>:
    10012878:	7139                	addi	sp,sp,-64
    1001287a:	fc06                	sd	ra,56(sp)
    1001287c:	e42a                	sd	a0,8(sp)
    1001287e:	e02e                	sd	a1,0(sp)
    10012880:	f402                	sd	zero,40(sp)
    10012882:	6702                	ld	a4,0(sp)
    10012884:	4791                	li	a5,4
    10012886:	00e7f563          	bgeu	a5,a4,10012890 <vTaskPrioritySet+0x18>
    1001288a:	3000f073          	csrci	mstatus,1
    1001288e:	a001                	j	1001288e <vTaskPrioritySet+0x16>
    10012890:	6702                	ld	a4,0(sp)
    10012892:	4791                	li	a5,4
    10012894:	00e7f463          	bgeu	a5,a4,1001289c <vTaskPrioritySet+0x24>
    10012898:	4791                	li	a5,4
    1001289a:	e03e                	sd	a5,0(sp)
    1001289c:	4a4010ef          	jal	ra,10013d40 <vTaskEnterCritical>
    100128a0:	67a2                	ld	a5,8(sp)
    100128a2:	e791                	bnez	a5,100128ae <vTaskPrioritySet+0x36>
    100128a4:	100507b7          	lui	a5,0x10050
    100128a8:	3107b783          	ld	a5,784(a5) # 10050310 <pxCurrentTCB>
    100128ac:	a011                	j	100128b0 <vTaskPrioritySet+0x38>
    100128ae:	67a2                	ld	a5,8(sp)
    100128b0:	f03e                	sd	a5,32(sp)
    100128b2:	7782                	ld	a5,32(sp)
    100128b4:	6bdc                	ld	a5,144(a5)
    100128b6:	ec3e                	sd	a5,24(sp)
    100128b8:	6762                	ld	a4,24(sp)
    100128ba:	6782                	ld	a5,0(sp)
    100128bc:	0ef70a63          	beq	a4,a5,100129b0 <vTaskPrioritySet+0x138>
    100128c0:	6702                	ld	a4,0(sp)
    100128c2:	67e2                	ld	a5,24(sp)
    100128c4:	02e7f463          	bgeu	a5,a4,100128ec <vTaskPrioritySet+0x74>
    100128c8:	100507b7          	lui	a5,0x10050
    100128cc:	3107b783          	ld	a5,784(a5) # 10050310 <pxCurrentTCB>
    100128d0:	7702                	ld	a4,32(sp)
    100128d2:	02f70663          	beq	a4,a5,100128fe <vTaskPrioritySet+0x86>
    100128d6:	100507b7          	lui	a5,0x10050
    100128da:	3107b783          	ld	a5,784(a5) # 10050310 <pxCurrentTCB>
    100128de:	6fbc                	ld	a5,88(a5)
    100128e0:	6702                	ld	a4,0(sp)
    100128e2:	00f76e63          	bltu	a4,a5,100128fe <vTaskPrioritySet+0x86>
    100128e6:	4785                	li	a5,1
    100128e8:	f43e                	sd	a5,40(sp)
    100128ea:	a811                	j	100128fe <vTaskPrioritySet+0x86>
    100128ec:	100507b7          	lui	a5,0x10050
    100128f0:	3107b783          	ld	a5,784(a5) # 10050310 <pxCurrentTCB>
    100128f4:	7702                	ld	a4,32(sp)
    100128f6:	00f71463          	bne	a4,a5,100128fe <vTaskPrioritySet+0x86>
    100128fa:	4785                	li	a5,1
    100128fc:	f43e                	sd	a5,40(sp)
    100128fe:	7782                	ld	a5,32(sp)
    10012900:	6fbc                	ld	a5,88(a5)
    10012902:	e83e                	sd	a5,16(sp)
    10012904:	7782                	ld	a5,32(sp)
    10012906:	6bd8                	ld	a4,144(a5)
    10012908:	7782                	ld	a5,32(sp)
    1001290a:	6fbc                	ld	a5,88(a5)
    1001290c:	00f71563          	bne	a4,a5,10012916 <vTaskPrioritySet+0x9e>
    10012910:	7782                	ld	a5,32(sp)
    10012912:	6702                	ld	a4,0(sp)
    10012914:	efb8                	sd	a4,88(a5)
    10012916:	7782                	ld	a5,32(sp)
    10012918:	6702                	ld	a4,0(sp)
    1001291a:	ebd8                	sd	a4,144(a5)
    1001291c:	7782                	ld	a5,32(sp)
    1001291e:	5b9c                	lw	a5,48(a5)
    10012920:	2781                	sext.w	a5,a5
    10012922:	0007cb63          	bltz	a5,10012938 <vTaskPrioritySet+0xc0>
    10012926:	6782                	ld	a5,0(sp)
    10012928:	2781                	sext.w	a5,a5
    1001292a:	4715                	li	a4,5
    1001292c:	40f707bb          	subw	a5,a4,a5
    10012930:	0007871b          	sext.w	a4,a5
    10012934:	7782                	ld	a5,32(sp)
    10012936:	db98                	sw	a4,48(a5)
    10012938:	7782                	ld	a5,32(sp)
    1001293a:	7794                	ld	a3,40(a5)
    1001293c:	6742                	ld	a4,16(sp)
    1001293e:	87ba                	mv	a5,a4
    10012940:	078a                	slli	a5,a5,0x2
    10012942:	97ba                	add	a5,a5,a4
    10012944:	078e                	slli	a5,a5,0x3
    10012946:	10050737          	lui	a4,0x10050
    1001294a:	43870713          	addi	a4,a4,1080 # 10050438 <pxReadyTasksLists>
    1001294e:	97ba                	add	a5,a5,a4
    10012950:	00f69463          	bne	a3,a5,10012958 <vTaskPrioritySet+0xe0>
    10012954:	4785                	li	a5,1
    10012956:	a011                	j	1001295a <vTaskPrioritySet+0xe2>
    10012958:	4781                	li	a5,0
    1001295a:	c7a9                	beqz	a5,100129a4 <vTaskPrioritySet+0x12c>
    1001295c:	7782                	ld	a5,32(sp)
    1001295e:	07a1                	addi	a5,a5,8
    10012960:	853e                	mv	a0,a5
    10012962:	dcbfe0ef          	jal	ra,1001172c <uxListRemove>
    10012966:	7782                	ld	a5,32(sp)
    10012968:	6fb8                	ld	a4,88(a5)
    1001296a:	100507b7          	lui	a5,0x10050
    1001296e:	5f07b783          	ld	a5,1520(a5) # 100505f0 <uxTopReadyPriority>
    10012972:	00e7f863          	bgeu	a5,a4,10012982 <vTaskPrioritySet+0x10a>
    10012976:	7782                	ld	a5,32(sp)
    10012978:	6fb8                	ld	a4,88(a5)
    1001297a:	100507b7          	lui	a5,0x10050
    1001297e:	5ee7b823          	sd	a4,1520(a5) # 100505f0 <uxTopReadyPriority>
    10012982:	7782                	ld	a5,32(sp)
    10012984:	6fb8                	ld	a4,88(a5)
    10012986:	87ba                	mv	a5,a4
    10012988:	078a                	slli	a5,a5,0x2
    1001298a:	97ba                	add	a5,a5,a4
    1001298c:	078e                	slli	a5,a5,0x3
    1001298e:	10050737          	lui	a4,0x10050
    10012992:	43870713          	addi	a4,a4,1080 # 10050438 <pxReadyTasksLists>
    10012996:	973e                	add	a4,a4,a5
    10012998:	7782                	ld	a5,32(sp)
    1001299a:	07a1                	addi	a5,a5,8
    1001299c:	85be                	mv	a1,a5
    1001299e:	853a                	mv	a0,a4
    100129a0:	cddfe0ef          	jal	ra,1001167c <vListInsertEnd>
    100129a4:	7722                	ld	a4,40(sp)
    100129a6:	4785                	li	a5,1
    100129a8:	00f71463          	bne	a4,a5,100129b0 <vTaskPrioritySet+0x138>
    100129ac:	b2bfe0ef          	jal	ra,100114d6 <vPortYield>
    100129b0:	3b8010ef          	jal	ra,10013d68 <vTaskExitCritical>
    100129b4:	0001                	nop
    100129b6:	70e2                	ld	ra,56(sp)
    100129b8:	6121                	addi	sp,sp,64
    100129ba:	8082                	ret

00000000100129bc <vTaskSuspend>:
    100129bc:	7179                	addi	sp,sp,-48
    100129be:	f406                	sd	ra,40(sp)
    100129c0:	e42a                	sd	a0,8(sp)
    100129c2:	37e010ef          	jal	ra,10013d40 <vTaskEnterCritical>
    100129c6:	67a2                	ld	a5,8(sp)
    100129c8:	e791                	bnez	a5,100129d4 <vTaskSuspend+0x18>
    100129ca:	100507b7          	lui	a5,0x10050
    100129ce:	3107b783          	ld	a5,784(a5) # 10050310 <pxCurrentTCB>
    100129d2:	a011                	j	100129d6 <vTaskSuspend+0x1a>
    100129d4:	67a2                	ld	a5,8(sp)
    100129d6:	ec3e                	sd	a5,24(sp)
    100129d8:	67e2                	ld	a5,24(sp)
    100129da:	07a1                	addi	a5,a5,8
    100129dc:	853e                	mv	a0,a5
    100129de:	d4ffe0ef          	jal	ra,1001172c <uxListRemove>
    100129e2:	67e2                	ld	a5,24(sp)
    100129e4:	6bbc                	ld	a5,80(a5)
    100129e6:	c799                	beqz	a5,100129f4 <vTaskSuspend+0x38>
    100129e8:	67e2                	ld	a5,24(sp)
    100129ea:	03078793          	addi	a5,a5,48
    100129ee:	853e                	mv	a0,a5
    100129f0:	d3dfe0ef          	jal	ra,1001172c <uxListRemove>
    100129f4:	67e2                	ld	a5,24(sp)
    100129f6:	07a1                	addi	a5,a5,8
    100129f8:	85be                	mv	a1,a5
    100129fa:	100507b7          	lui	a5,0x10050
    100129fe:	5b878513          	addi	a0,a5,1464 # 100505b8 <xSuspendedTaskList>
    10012a02:	c7bfe0ef          	jal	ra,1001167c <vListInsertEnd>
    10012a06:	362010ef          	jal	ra,10013d68 <vTaskExitCritical>
    10012a0a:	100507b7          	lui	a5,0x10050
    10012a0e:	3107b783          	ld	a5,784(a5) # 10050310 <pxCurrentTCB>
    10012a12:	6762                	ld	a4,24(sp)
    10012a14:	04f71563          	bne	a4,a5,10012a5e <vTaskSuspend+0xa2>
    10012a18:	100507b7          	lui	a5,0x10050
    10012a1c:	5f87b783          	ld	a5,1528(a5) # 100505f8 <xSchedulerRunning>
    10012a20:	cf81                	beqz	a5,10012a38 <vTaskSuspend+0x7c>
    10012a22:	100507b7          	lui	a5,0x10050
    10012a26:	6287b783          	ld	a5,1576(a5) # 10050628 <uxSchedulerSuspended>
    10012a2a:	c781                	beqz	a5,10012a32 <vTaskSuspend+0x76>
    10012a2c:	3000f073          	csrci	mstatus,1
    10012a30:	a001                	j	10012a30 <vTaskSuspend+0x74>
    10012a32:	aa5fe0ef          	jal	ra,100114d6 <vPortYield>
    10012a36:	a83d                	j	10012a74 <vTaskSuspend+0xb8>
    10012a38:	100507b7          	lui	a5,0x10050
    10012a3c:	5b878793          	addi	a5,a5,1464 # 100505b8 <xSuspendedTaskList>
    10012a40:	6398                	ld	a4,0(a5)
    10012a42:	100507b7          	lui	a5,0x10050
    10012a46:	5e07b783          	ld	a5,1504(a5) # 100505e0 <uxCurrentNumberOfTasks>
    10012a4a:	00f71763          	bne	a4,a5,10012a58 <vTaskSuspend+0x9c>
    10012a4e:	100507b7          	lui	a5,0x10050
    10012a52:	3007b823          	sd	zero,784(a5) # 10050310 <pxCurrentTCB>
    10012a56:	a839                	j	10012a74 <vTaskSuspend+0xb8>
    10012a58:	6da000ef          	jal	ra,10013132 <vTaskSwitchContext>
    10012a5c:	a821                	j	10012a74 <vTaskSuspend+0xb8>
    10012a5e:	100507b7          	lui	a5,0x10050
    10012a62:	5f87b783          	ld	a5,1528(a5) # 100505f8 <xSchedulerRunning>
    10012a66:	c799                	beqz	a5,10012a74 <vTaskSuspend+0xb8>
    10012a68:	2d8010ef          	jal	ra,10013d40 <vTaskEnterCritical>
    10012a6c:	0ba010ef          	jal	ra,10013b26 <prvResetNextTaskUnblockTime>
    10012a70:	2f8010ef          	jal	ra,10013d68 <vTaskExitCritical>
    10012a74:	0001                	nop
    10012a76:	70a2                	ld	ra,40(sp)
    10012a78:	6145                	addi	sp,sp,48
    10012a7a:	8082                	ret

0000000010012a7c <prvTaskIsTaskSuspended>:
    10012a7c:	1101                	addi	sp,sp,-32
    10012a7e:	e42a                	sd	a0,8(sp)
    10012a80:	ec02                	sd	zero,24(sp)
    10012a82:	67a2                	ld	a5,8(sp)
    10012a84:	e83e                	sd	a5,16(sp)
    10012a86:	67a2                	ld	a5,8(sp)
    10012a88:	e781                	bnez	a5,10012a90 <prvTaskIsTaskSuspended+0x14>
    10012a8a:	3000f073          	csrci	mstatus,1
    10012a8e:	a001                	j	10012a8e <prvTaskIsTaskSuspended+0x12>
    10012a90:	67c2                	ld	a5,16(sp)
    10012a92:	7798                	ld	a4,40(a5)
    10012a94:	100507b7          	lui	a5,0x10050
    10012a98:	5b878793          	addi	a5,a5,1464 # 100505b8 <xSuspendedTaskList>
    10012a9c:	00f71463          	bne	a4,a5,10012aa4 <prvTaskIsTaskSuspended+0x28>
    10012aa0:	4785                	li	a5,1
    10012aa2:	a011                	j	10012aa6 <prvTaskIsTaskSuspended+0x2a>
    10012aa4:	4781                	li	a5,0
    10012aa6:	c395                	beqz	a5,10012aca <prvTaskIsTaskSuspended+0x4e>
    10012aa8:	67c2                	ld	a5,16(sp)
    10012aaa:	6bb8                	ld	a4,80(a5)
    10012aac:	100507b7          	lui	a5,0x10050
    10012ab0:	56078793          	addi	a5,a5,1376 # 10050560 <xPendingReadyList>
    10012ab4:	00f70b63          	beq	a4,a5,10012aca <prvTaskIsTaskSuspended+0x4e>
    10012ab8:	67c2                	ld	a5,16(sp)
    10012aba:	6bbc                	ld	a5,80(a5)
    10012abc:	e399                	bnez	a5,10012ac2 <prvTaskIsTaskSuspended+0x46>
    10012abe:	4785                	li	a5,1
    10012ac0:	a011                	j	10012ac4 <prvTaskIsTaskSuspended+0x48>
    10012ac2:	4781                	li	a5,0
    10012ac4:	c399                	beqz	a5,10012aca <prvTaskIsTaskSuspended+0x4e>
    10012ac6:	4785                	li	a5,1
    10012ac8:	ec3e                	sd	a5,24(sp)
    10012aca:	67e2                	ld	a5,24(sp)
    10012acc:	853e                	mv	a0,a5
    10012ace:	6105                	addi	sp,sp,32
    10012ad0:	8082                	ret

0000000010012ad2 <vTaskResume>:
    10012ad2:	7179                	addi	sp,sp,-48
    10012ad4:	f406                	sd	ra,40(sp)
    10012ad6:	e42a                	sd	a0,8(sp)
    10012ad8:	67a2                	ld	a5,8(sp)
    10012ada:	ec3e                	sd	a5,24(sp)
    10012adc:	67a2                	ld	a5,8(sp)
    10012ade:	e781                	bnez	a5,10012ae6 <vTaskResume+0x14>
    10012ae0:	3000f073          	csrci	mstatus,1
    10012ae4:	a001                	j	10012ae4 <vTaskResume+0x12>
    10012ae6:	67e2                	ld	a5,24(sp)
    10012ae8:	c3d1                	beqz	a5,10012b6c <vTaskResume+0x9a>
    10012aea:	100507b7          	lui	a5,0x10050
    10012aee:	3107b783          	ld	a5,784(a5) # 10050310 <pxCurrentTCB>
    10012af2:	6762                	ld	a4,24(sp)
    10012af4:	06f70c63          	beq	a4,a5,10012b6c <vTaskResume+0x9a>
    10012af8:	248010ef          	jal	ra,10013d40 <vTaskEnterCritical>
    10012afc:	6562                	ld	a0,24(sp)
    10012afe:	f7fff0ef          	jal	ra,10012a7c <prvTaskIsTaskSuspended>
    10012b02:	872a                	mv	a4,a0
    10012b04:	4785                	li	a5,1
    10012b06:	06f71163          	bne	a4,a5,10012b68 <vTaskResume+0x96>
    10012b0a:	67e2                	ld	a5,24(sp)
    10012b0c:	07a1                	addi	a5,a5,8
    10012b0e:	853e                	mv	a0,a5
    10012b10:	c1dfe0ef          	jal	ra,1001172c <uxListRemove>
    10012b14:	67e2                	ld	a5,24(sp)
    10012b16:	6fb8                	ld	a4,88(a5)
    10012b18:	100507b7          	lui	a5,0x10050
    10012b1c:	5f07b783          	ld	a5,1520(a5) # 100505f0 <uxTopReadyPriority>
    10012b20:	00e7f863          	bgeu	a5,a4,10012b30 <vTaskResume+0x5e>
    10012b24:	67e2                	ld	a5,24(sp)
    10012b26:	6fb8                	ld	a4,88(a5)
    10012b28:	100507b7          	lui	a5,0x10050
    10012b2c:	5ee7b823          	sd	a4,1520(a5) # 100505f0 <uxTopReadyPriority>
    10012b30:	67e2                	ld	a5,24(sp)
    10012b32:	6fb8                	ld	a4,88(a5)
    10012b34:	87ba                	mv	a5,a4
    10012b36:	078a                	slli	a5,a5,0x2
    10012b38:	97ba                	add	a5,a5,a4
    10012b3a:	078e                	slli	a5,a5,0x3
    10012b3c:	10050737          	lui	a4,0x10050
    10012b40:	43870713          	addi	a4,a4,1080 # 10050438 <pxReadyTasksLists>
    10012b44:	973e                	add	a4,a4,a5
    10012b46:	67e2                	ld	a5,24(sp)
    10012b48:	07a1                	addi	a5,a5,8
    10012b4a:	85be                	mv	a1,a5
    10012b4c:	853a                	mv	a0,a4
    10012b4e:	b2ffe0ef          	jal	ra,1001167c <vListInsertEnd>
    10012b52:	67e2                	ld	a5,24(sp)
    10012b54:	6fb8                	ld	a4,88(a5)
    10012b56:	100507b7          	lui	a5,0x10050
    10012b5a:	3107b783          	ld	a5,784(a5) # 10050310 <pxCurrentTCB>
    10012b5e:	6fbc                	ld	a5,88(a5)
    10012b60:	00f76463          	bltu	a4,a5,10012b68 <vTaskResume+0x96>
    10012b64:	973fe0ef          	jal	ra,100114d6 <vPortYield>
    10012b68:	200010ef          	jal	ra,10013d68 <vTaskExitCritical>
    10012b6c:	0001                	nop
    10012b6e:	70a2                	ld	ra,40(sp)
    10012b70:	6145                	addi	sp,sp,48
    10012b72:	8082                	ret

0000000010012b74 <xTaskResumeFromISR>:
    10012b74:	7139                	addi	sp,sp,-64
    10012b76:	fc06                	sd	ra,56(sp)
    10012b78:	e42a                	sd	a0,8(sp)
    10012b7a:	f402                	sd	zero,40(sp)
    10012b7c:	67a2                	ld	a5,8(sp)
    10012b7e:	f03e                	sd	a5,32(sp)
    10012b80:	67a2                	ld	a5,8(sp)
    10012b82:	e781                	bnez	a5,10012b8a <xTaskResumeFromISR+0x16>
    10012b84:	3000f073          	csrci	mstatus,1
    10012b88:	a001                	j	10012b88 <xTaskResumeFromISR+0x14>
    10012b8a:	a33fe0ef          	jal	ra,100115bc <vPortSetInterruptMask>
    10012b8e:	87aa                	mv	a5,a0
    10012b90:	ec3e                	sd	a5,24(sp)
    10012b92:	7502                	ld	a0,32(sp)
    10012b94:	ee9ff0ef          	jal	ra,10012a7c <prvTaskIsTaskSuspended>
    10012b98:	872a                	mv	a4,a0
    10012b9a:	4785                	li	a5,1
    10012b9c:	08f71163          	bne	a4,a5,10012c1e <xTaskResumeFromISR+0xaa>
    10012ba0:	100507b7          	lui	a5,0x10050
    10012ba4:	6287b783          	ld	a5,1576(a5) # 10050628 <uxSchedulerSuspended>
    10012ba8:	e3ad                	bnez	a5,10012c0a <xTaskResumeFromISR+0x96>
    10012baa:	7782                	ld	a5,32(sp)
    10012bac:	6fb8                	ld	a4,88(a5)
    10012bae:	100507b7          	lui	a5,0x10050
    10012bb2:	3107b783          	ld	a5,784(a5) # 10050310 <pxCurrentTCB>
    10012bb6:	6fbc                	ld	a5,88(a5)
    10012bb8:	00f76463          	bltu	a4,a5,10012bc0 <xTaskResumeFromISR+0x4c>
    10012bbc:	4785                	li	a5,1
    10012bbe:	f43e                	sd	a5,40(sp)
    10012bc0:	7782                	ld	a5,32(sp)
    10012bc2:	07a1                	addi	a5,a5,8
    10012bc4:	853e                	mv	a0,a5
    10012bc6:	b67fe0ef          	jal	ra,1001172c <uxListRemove>
    10012bca:	7782                	ld	a5,32(sp)
    10012bcc:	6fb8                	ld	a4,88(a5)
    10012bce:	100507b7          	lui	a5,0x10050
    10012bd2:	5f07b783          	ld	a5,1520(a5) # 100505f0 <uxTopReadyPriority>
    10012bd6:	00e7f863          	bgeu	a5,a4,10012be6 <xTaskResumeFromISR+0x72>
    10012bda:	7782                	ld	a5,32(sp)
    10012bdc:	6fb8                	ld	a4,88(a5)
    10012bde:	100507b7          	lui	a5,0x10050
    10012be2:	5ee7b823          	sd	a4,1520(a5) # 100505f0 <uxTopReadyPriority>
    10012be6:	7782                	ld	a5,32(sp)
    10012be8:	6fb8                	ld	a4,88(a5)
    10012bea:	87ba                	mv	a5,a4
    10012bec:	078a                	slli	a5,a5,0x2
    10012bee:	97ba                	add	a5,a5,a4
    10012bf0:	078e                	slli	a5,a5,0x3
    10012bf2:	10050737          	lui	a4,0x10050
    10012bf6:	43870713          	addi	a4,a4,1080 # 10050438 <pxReadyTasksLists>
    10012bfa:	973e                	add	a4,a4,a5
    10012bfc:	7782                	ld	a5,32(sp)
    10012bfe:	07a1                	addi	a5,a5,8
    10012c00:	85be                	mv	a1,a5
    10012c02:	853a                	mv	a0,a4
    10012c04:	a79fe0ef          	jal	ra,1001167c <vListInsertEnd>
    10012c08:	a819                	j	10012c1e <xTaskResumeFromISR+0xaa>
    10012c0a:	7782                	ld	a5,32(sp)
    10012c0c:	03078793          	addi	a5,a5,48
    10012c10:	85be                	mv	a1,a5
    10012c12:	100507b7          	lui	a5,0x10050
    10012c16:	56078513          	addi	a0,a5,1376 # 10050560 <xPendingReadyList>
    10012c1a:	a63fe0ef          	jal	ra,1001167c <vListInsertEnd>
    10012c1e:	67e2                	ld	a5,24(sp)
    10012c20:	2781                	sext.w	a5,a5
    10012c22:	853e                	mv	a0,a5
    10012c24:	987fe0ef          	jal	ra,100115aa <vPortClearInterruptMask>
    10012c28:	77a2                	ld	a5,40(sp)
    10012c2a:	853e                	mv	a0,a5
    10012c2c:	70e2                	ld	ra,56(sp)
    10012c2e:	6121                	addi	sp,sp,64
    10012c30:	8082                	ret

0000000010012c32 <vTaskStartScheduler>:
    10012c32:	1101                	addi	sp,sp,-32
    10012c34:	ec06                	sd	ra,24(sp)
    10012c36:	4881                	li	a7,0
    10012c38:	4801                	li	a6,0
    10012c3a:	4781                	li	a5,0
    10012c3c:	4701                	li	a4,0
    10012c3e:	4681                	li	a3,0
    10012c40:	40000613          	li	a2,1024
    10012c44:	100505b7          	lui	a1,0x10050
    10012c48:	00058593          	mv	a1,a1
    10012c4c:	10013537          	lui	a0,0x10013
    10012c50:	68250513          	addi	a0,a0,1666 # 10013682 <prvIdleTask>
    10012c54:	faeff0ef          	jal	ra,10012402 <xTaskGenericCreate>
    10012c58:	e42a                	sd	a0,8(sp)
    10012c5a:	6722                	ld	a4,8(sp)
    10012c5c:	4785                	li	a5,1
    10012c5e:	00f71563          	bne	a4,a5,10012c68 <vTaskStartScheduler+0x36>
    10012c62:	79e010ef          	jal	ra,10014400 <xTimerCreateTimerTask>
    10012c66:	e42a                	sd	a0,8(sp)
    10012c68:	6722                	ld	a4,8(sp)
    10012c6a:	4785                	li	a5,1
    10012c6c:	02f71563          	bne	a4,a5,10012c96 <vTaskStartScheduler+0x64>
    10012c70:	3000f073          	csrci	mstatus,1
    10012c74:	100507b7          	lui	a5,0x10050
    10012c78:	577d                	li	a4,-1
    10012c7a:	62e7a023          	sw	a4,1568(a5) # 10050620 <xNextTaskUnblockTime>
    10012c7e:	100507b7          	lui	a5,0x10050
    10012c82:	4705                	li	a4,1
    10012c84:	5ee7bc23          	sd	a4,1528(a5) # 100505f8 <xSchedulerRunning>
    10012c88:	100507b7          	lui	a5,0x10050
    10012c8c:	5e07a423          	sw	zero,1512(a5) # 100505e8 <xTickCount>
    10012c90:	ee0fe0ef          	jal	ra,10011370 <xPortStartScheduler>
    10012c94:	a031                	j	10012ca0 <vTaskStartScheduler+0x6e>
    10012c96:	67a2                	ld	a5,8(sp)
    10012c98:	e781                	bnez	a5,10012ca0 <vTaskStartScheduler+0x6e>
    10012c9a:	3000f073          	csrci	mstatus,1
    10012c9e:	a001                	j	10012c9e <vTaskStartScheduler+0x6c>
    10012ca0:	0001                	nop
    10012ca2:	60e2                	ld	ra,24(sp)
    10012ca4:	6105                	addi	sp,sp,32
    10012ca6:	8082                	ret

0000000010012ca8 <vTaskEndScheduler>:
    10012ca8:	1141                	addi	sp,sp,-16
    10012caa:	e406                	sd	ra,8(sp)
    10012cac:	3000f073          	csrci	mstatus,1
    10012cb0:	100507b7          	lui	a5,0x10050
    10012cb4:	5e07bc23          	sd	zero,1528(a5) # 100505f8 <xSchedulerRunning>
    10012cb8:	f98fe0ef          	jal	ra,10011450 <vPortEndScheduler>
    10012cbc:	0001                	nop
    10012cbe:	60a2                	ld	ra,8(sp)
    10012cc0:	0141                	addi	sp,sp,16
    10012cc2:	8082                	ret

0000000010012cc4 <vTaskSuspendAll>:
    10012cc4:	100507b7          	lui	a5,0x10050
    10012cc8:	6287b783          	ld	a5,1576(a5) # 10050628 <uxSchedulerSuspended>
    10012ccc:	00178713          	addi	a4,a5,1
    10012cd0:	100507b7          	lui	a5,0x10050
    10012cd4:	62e7b423          	sd	a4,1576(a5) # 10050628 <uxSchedulerSuspended>
    10012cd8:	0001                	nop
    10012cda:	8082                	ret

0000000010012cdc <xTaskResumeAll>:
    10012cdc:	1101                	addi	sp,sp,-32
    10012cde:	ec06                	sd	ra,24(sp)
    10012ce0:	e402                	sd	zero,8(sp)
    10012ce2:	100507b7          	lui	a5,0x10050
    10012ce6:	6287b783          	ld	a5,1576(a5) # 10050628 <uxSchedulerSuspended>
    10012cea:	e781                	bnez	a5,10012cf2 <xTaskResumeAll+0x16>
    10012cec:	3000f073          	csrci	mstatus,1
    10012cf0:	a001                	j	10012cf0 <xTaskResumeAll+0x14>
    10012cf2:	04e010ef          	jal	ra,10013d40 <vTaskEnterCritical>
    10012cf6:	100507b7          	lui	a5,0x10050
    10012cfa:	6287b783          	ld	a5,1576(a5) # 10050628 <uxSchedulerSuspended>
    10012cfe:	fff78713          	addi	a4,a5,-1
    10012d02:	100507b7          	lui	a5,0x10050
    10012d06:	62e7b423          	sd	a4,1576(a5) # 10050628 <uxSchedulerSuspended>
    10012d0a:	100507b7          	lui	a5,0x10050
    10012d0e:	6287b783          	ld	a5,1576(a5) # 10050628 <uxSchedulerSuspended>
    10012d12:	0e079663          	bnez	a5,10012dfe <xTaskResumeAll+0x122>
    10012d16:	100507b7          	lui	a5,0x10050
    10012d1a:	5e07b783          	ld	a5,1504(a5) # 100505e0 <uxCurrentNumberOfTasks>
    10012d1e:	c3e5                	beqz	a5,10012dfe <xTaskResumeAll+0x122>
    10012d20:	a041                	j	10012da0 <xTaskResumeAll+0xc4>
    10012d22:	100507b7          	lui	a5,0x10050
    10012d26:	56078793          	addi	a5,a5,1376 # 10050560 <xPendingReadyList>
    10012d2a:	6f9c                	ld	a5,24(a5)
    10012d2c:	6f9c                	ld	a5,24(a5)
    10012d2e:	e03e                	sd	a5,0(sp)
    10012d30:	6782                	ld	a5,0(sp)
    10012d32:	03078793          	addi	a5,a5,48
    10012d36:	853e                	mv	a0,a5
    10012d38:	9f5fe0ef          	jal	ra,1001172c <uxListRemove>
    10012d3c:	6782                	ld	a5,0(sp)
    10012d3e:	07a1                	addi	a5,a5,8
    10012d40:	853e                	mv	a0,a5
    10012d42:	9ebfe0ef          	jal	ra,1001172c <uxListRemove>
    10012d46:	6782                	ld	a5,0(sp)
    10012d48:	6fb8                	ld	a4,88(a5)
    10012d4a:	100507b7          	lui	a5,0x10050
    10012d4e:	5f07b783          	ld	a5,1520(a5) # 100505f0 <uxTopReadyPriority>
    10012d52:	00e7f863          	bgeu	a5,a4,10012d62 <xTaskResumeAll+0x86>
    10012d56:	6782                	ld	a5,0(sp)
    10012d58:	6fb8                	ld	a4,88(a5)
    10012d5a:	100507b7          	lui	a5,0x10050
    10012d5e:	5ee7b823          	sd	a4,1520(a5) # 100505f0 <uxTopReadyPriority>
    10012d62:	6782                	ld	a5,0(sp)
    10012d64:	6fb8                	ld	a4,88(a5)
    10012d66:	87ba                	mv	a5,a4
    10012d68:	078a                	slli	a5,a5,0x2
    10012d6a:	97ba                	add	a5,a5,a4
    10012d6c:	078e                	slli	a5,a5,0x3
    10012d6e:	10050737          	lui	a4,0x10050
    10012d72:	43870713          	addi	a4,a4,1080 # 10050438 <pxReadyTasksLists>
    10012d76:	973e                	add	a4,a4,a5
    10012d78:	6782                	ld	a5,0(sp)
    10012d7a:	07a1                	addi	a5,a5,8
    10012d7c:	85be                	mv	a1,a5
    10012d7e:	853a                	mv	a0,a4
    10012d80:	8fdfe0ef          	jal	ra,1001167c <vListInsertEnd>
    10012d84:	6782                	ld	a5,0(sp)
    10012d86:	6fb8                	ld	a4,88(a5)
    10012d88:	100507b7          	lui	a5,0x10050
    10012d8c:	3107b783          	ld	a5,784(a5) # 10050310 <pxCurrentTCB>
    10012d90:	6fbc                	ld	a5,88(a5)
    10012d92:	00f76763          	bltu	a4,a5,10012da0 <xTaskResumeAll+0xc4>
    10012d96:	100507b7          	lui	a5,0x10050
    10012d9a:	4705                	li	a4,1
    10012d9c:	60e7b423          	sd	a4,1544(a5) # 10050608 <xYieldPending>
    10012da0:	100507b7          	lui	a5,0x10050
    10012da4:	56078793          	addi	a5,a5,1376 # 10050560 <xPendingReadyList>
    10012da8:	639c                	ld	a5,0(a5)
    10012daa:	ffa5                	bnez	a5,10012d22 <xTaskResumeAll+0x46>
    10012dac:	100507b7          	lui	a5,0x10050
    10012db0:	6007b783          	ld	a5,1536(a5) # 10050600 <uxPendedTicks>
    10012db4:	cb95                	beqz	a5,10012de8 <xTaskResumeAll+0x10c>
    10012db6:	a025                	j	10012dde <xTaskResumeAll+0x102>
    10012db8:	1ca000ef          	jal	ra,10012f82 <xTaskIncrementTick>
    10012dbc:	87aa                	mv	a5,a0
    10012dbe:	c791                	beqz	a5,10012dca <xTaskResumeAll+0xee>
    10012dc0:	100507b7          	lui	a5,0x10050
    10012dc4:	4705                	li	a4,1
    10012dc6:	60e7b423          	sd	a4,1544(a5) # 10050608 <xYieldPending>
    10012dca:	100507b7          	lui	a5,0x10050
    10012dce:	6007b783          	ld	a5,1536(a5) # 10050600 <uxPendedTicks>
    10012dd2:	fff78713          	addi	a4,a5,-1
    10012dd6:	100507b7          	lui	a5,0x10050
    10012dda:	60e7b023          	sd	a4,1536(a5) # 10050600 <uxPendedTicks>
    10012dde:	100507b7          	lui	a5,0x10050
    10012de2:	6007b783          	ld	a5,1536(a5) # 10050600 <uxPendedTicks>
    10012de6:	fbe9                	bnez	a5,10012db8 <xTaskResumeAll+0xdc>
    10012de8:	100507b7          	lui	a5,0x10050
    10012dec:	6087b703          	ld	a4,1544(a5) # 10050608 <xYieldPending>
    10012df0:	4785                	li	a5,1
    10012df2:	00f71663          	bne	a4,a5,10012dfe <xTaskResumeAll+0x122>
    10012df6:	4785                	li	a5,1
    10012df8:	e43e                	sd	a5,8(sp)
    10012dfa:	edcfe0ef          	jal	ra,100114d6 <vPortYield>
    10012dfe:	76b000ef          	jal	ra,10013d68 <vTaskExitCritical>
    10012e02:	67a2                	ld	a5,8(sp)
    10012e04:	853e                	mv	a0,a5
    10012e06:	60e2                	ld	ra,24(sp)
    10012e08:	6105                	addi	sp,sp,32
    10012e0a:	8082                	ret

0000000010012e0c <xTaskGetTickCount>:
    10012e0c:	1101                	addi	sp,sp,-32
    10012e0e:	ec06                	sd	ra,24(sp)
    10012e10:	731000ef          	jal	ra,10013d40 <vTaskEnterCritical>
    10012e14:	100507b7          	lui	a5,0x10050
    10012e18:	5e87a783          	lw	a5,1512(a5) # 100505e8 <xTickCount>
    10012e1c:	c63e                	sw	a5,12(sp)
    10012e1e:	74b000ef          	jal	ra,10013d68 <vTaskExitCritical>
    10012e22:	47b2                	lw	a5,12(sp)
    10012e24:	853e                	mv	a0,a5
    10012e26:	60e2                	ld	ra,24(sp)
    10012e28:	6105                	addi	sp,sp,32
    10012e2a:	8082                	ret

0000000010012e2c <xTaskGetTickCountFromISR>:
    10012e2c:	1101                	addi	sp,sp,-32
    10012e2e:	ec06                	sd	ra,24(sp)
    10012e30:	f8cfe0ef          	jal	ra,100115bc <vPortSetInterruptMask>
    10012e34:	87aa                	mv	a5,a0
    10012e36:	e43e                	sd	a5,8(sp)
    10012e38:	100507b7          	lui	a5,0x10050
    10012e3c:	5e87a783          	lw	a5,1512(a5) # 100505e8 <xTickCount>
    10012e40:	c23e                	sw	a5,4(sp)
    10012e42:	67a2                	ld	a5,8(sp)
    10012e44:	2781                	sext.w	a5,a5
    10012e46:	853e                	mv	a0,a5
    10012e48:	f62fe0ef          	jal	ra,100115aa <vPortClearInterruptMask>
    10012e4c:	4792                	lw	a5,4(sp)
    10012e4e:	853e                	mv	a0,a5
    10012e50:	60e2                	ld	ra,24(sp)
    10012e52:	6105                	addi	sp,sp,32
    10012e54:	8082                	ret

0000000010012e56 <uxTaskGetNumberOfTasks>:
    10012e56:	100507b7          	lui	a5,0x10050
    10012e5a:	5e07b783          	ld	a5,1504(a5) # 100505e0 <uxCurrentNumberOfTasks>
    10012e5e:	853e                	mv	a0,a5
    10012e60:	8082                	ret

0000000010012e62 <uxTaskGetSystemState>:
    10012e62:	7139                	addi	sp,sp,-64
    10012e64:	fc06                	sd	ra,56(sp)
    10012e66:	ec2a                	sd	a0,24(sp)
    10012e68:	e82e                	sd	a1,16(sp)
    10012e6a:	e432                	sd	a2,8(sp)
    10012e6c:	f402                	sd	zero,40(sp)
    10012e6e:	4795                	li	a5,5
    10012e70:	f03e                	sd	a5,32(sp)
    10012e72:	e53ff0ef          	jal	ra,10012cc4 <vTaskSuspendAll>
    10012e76:	100507b7          	lui	a5,0x10050
    10012e7a:	5e07b783          	ld	a5,1504(a5) # 100505e0 <uxCurrentNumberOfTasks>
    10012e7e:	6742                	ld	a4,16(sp)
    10012e80:	0ef76a63          	bltu	a4,a5,10012f74 <uxTaskGetSystemState+0x112>
    10012e84:	7782                	ld	a5,32(sp)
    10012e86:	17fd                	addi	a5,a5,-1
    10012e88:	f03e                	sd	a5,32(sp)
    10012e8a:	7722                	ld	a4,40(sp)
    10012e8c:	87ba                	mv	a5,a4
    10012e8e:	078e                	slli	a5,a5,0x3
    10012e90:	8f99                	sub	a5,a5,a4
    10012e92:	078e                	slli	a5,a5,0x3
    10012e94:	873e                	mv	a4,a5
    10012e96:	67e2                	ld	a5,24(sp)
    10012e98:	00e786b3          	add	a3,a5,a4
    10012e9c:	7702                	ld	a4,32(sp)
    10012e9e:	87ba                	mv	a5,a4
    10012ea0:	078a                	slli	a5,a5,0x2
    10012ea2:	97ba                	add	a5,a5,a4
    10012ea4:	078e                	slli	a5,a5,0x3
    10012ea6:	10050737          	lui	a4,0x10050
    10012eaa:	43870713          	addi	a4,a4,1080 # 10050438 <pxReadyTasksLists>
    10012eae:	97ba                	add	a5,a5,a4
    10012eb0:	4605                	li	a2,1
    10012eb2:	85be                	mv	a1,a5
    10012eb4:	8536                	mv	a0,a3
    10012eb6:	2b3000ef          	jal	ra,10013968 <prvListTaskWithinSingleList>
    10012eba:	872a                	mv	a4,a0
    10012ebc:	77a2                	ld	a5,40(sp)
    10012ebe:	97ba                	add	a5,a5,a4
    10012ec0:	f43e                	sd	a5,40(sp)
    10012ec2:	7782                	ld	a5,32(sp)
    10012ec4:	f3e1                	bnez	a5,10012e84 <uxTaskGetSystemState+0x22>
    10012ec6:	7722                	ld	a4,40(sp)
    10012ec8:	87ba                	mv	a5,a4
    10012eca:	078e                	slli	a5,a5,0x3
    10012ecc:	8f99                	sub	a5,a5,a4
    10012ece:	078e                	slli	a5,a5,0x3
    10012ed0:	873e                	mv	a4,a5
    10012ed2:	67e2                	ld	a5,24(sp)
    10012ed4:	973e                	add	a4,a4,a5
    10012ed6:	100507b7          	lui	a5,0x10050
    10012eda:	5507b783          	ld	a5,1360(a5) # 10050550 <pxDelayedTaskList>
    10012ede:	4609                	li	a2,2
    10012ee0:	85be                	mv	a1,a5
    10012ee2:	853a                	mv	a0,a4
    10012ee4:	285000ef          	jal	ra,10013968 <prvListTaskWithinSingleList>
    10012ee8:	872a                	mv	a4,a0
    10012eea:	77a2                	ld	a5,40(sp)
    10012eec:	97ba                	add	a5,a5,a4
    10012eee:	f43e                	sd	a5,40(sp)
    10012ef0:	7722                	ld	a4,40(sp)
    10012ef2:	87ba                	mv	a5,a4
    10012ef4:	078e                	slli	a5,a5,0x3
    10012ef6:	8f99                	sub	a5,a5,a4
    10012ef8:	078e                	slli	a5,a5,0x3
    10012efa:	873e                	mv	a4,a5
    10012efc:	67e2                	ld	a5,24(sp)
    10012efe:	973e                	add	a4,a4,a5
    10012f00:	100507b7          	lui	a5,0x10050
    10012f04:	5587b783          	ld	a5,1368(a5) # 10050558 <pxOverflowDelayedTaskList>
    10012f08:	4609                	li	a2,2
    10012f0a:	85be                	mv	a1,a5
    10012f0c:	853a                	mv	a0,a4
    10012f0e:	25b000ef          	jal	ra,10013968 <prvListTaskWithinSingleList>
    10012f12:	872a                	mv	a4,a0
    10012f14:	77a2                	ld	a5,40(sp)
    10012f16:	97ba                	add	a5,a5,a4
    10012f18:	f43e                	sd	a5,40(sp)
    10012f1a:	7722                	ld	a4,40(sp)
    10012f1c:	87ba                	mv	a5,a4
    10012f1e:	078e                	slli	a5,a5,0x3
    10012f20:	8f99                	sub	a5,a5,a4
    10012f22:	078e                	slli	a5,a5,0x3
    10012f24:	873e                	mv	a4,a5
    10012f26:	67e2                	ld	a5,24(sp)
    10012f28:	973e                	add	a4,a4,a5
    10012f2a:	4611                	li	a2,4
    10012f2c:	100507b7          	lui	a5,0x10050
    10012f30:	58878593          	addi	a1,a5,1416 # 10050588 <xTasksWaitingTermination>
    10012f34:	853a                	mv	a0,a4
    10012f36:	233000ef          	jal	ra,10013968 <prvListTaskWithinSingleList>
    10012f3a:	872a                	mv	a4,a0
    10012f3c:	77a2                	ld	a5,40(sp)
    10012f3e:	97ba                	add	a5,a5,a4
    10012f40:	f43e                	sd	a5,40(sp)
    10012f42:	7722                	ld	a4,40(sp)
    10012f44:	87ba                	mv	a5,a4
    10012f46:	078e                	slli	a5,a5,0x3
    10012f48:	8f99                	sub	a5,a5,a4
    10012f4a:	078e                	slli	a5,a5,0x3
    10012f4c:	873e                	mv	a4,a5
    10012f4e:	67e2                	ld	a5,24(sp)
    10012f50:	973e                	add	a4,a4,a5
    10012f52:	460d                	li	a2,3
    10012f54:	100507b7          	lui	a5,0x10050
    10012f58:	5b878593          	addi	a1,a5,1464 # 100505b8 <xSuspendedTaskList>
    10012f5c:	853a                	mv	a0,a4
    10012f5e:	20b000ef          	jal	ra,10013968 <prvListTaskWithinSingleList>
    10012f62:	872a                	mv	a4,a0
    10012f64:	77a2                	ld	a5,40(sp)
    10012f66:	97ba                	add	a5,a5,a4
    10012f68:	f43e                	sd	a5,40(sp)
    10012f6a:	67a2                	ld	a5,8(sp)
    10012f6c:	c781                	beqz	a5,10012f74 <uxTaskGetSystemState+0x112>
    10012f6e:	67a2                	ld	a5,8(sp)
    10012f70:	0007a023          	sw	zero,0(a5)
    10012f74:	d69ff0ef          	jal	ra,10012cdc <xTaskResumeAll>
    10012f78:	77a2                	ld	a5,40(sp)
    10012f7a:	853e                	mv	a0,a5
    10012f7c:	70e2                	ld	ra,56(sp)
    10012f7e:	6121                	addi	sp,sp,64
    10012f80:	8082                	ret

0000000010012f82 <xTaskIncrementTick>:
    10012f82:	7139                	addi	sp,sp,-64
    10012f84:	fc06                	sd	ra,56(sp)
    10012f86:	f402                	sd	zero,40(sp)
    10012f88:	100507b7          	lui	a5,0x10050
    10012f8c:	6287b783          	ld	a5,1576(a5) # 10050628 <uxSchedulerSuspended>
    10012f90:	16079b63          	bnez	a5,10013106 <xTaskIncrementTick+0x184>
    10012f94:	100507b7          	lui	a5,0x10050
    10012f98:	5e87a783          	lw	a5,1512(a5) # 100505e8 <xTickCount>
    10012f9c:	2781                	sext.w	a5,a5
    10012f9e:	2785                	addiw	a5,a5,1
    10012fa0:	0007871b          	sext.w	a4,a5
    10012fa4:	100507b7          	lui	a5,0x10050
    10012fa8:	5ee7a423          	sw	a4,1512(a5) # 100505e8 <xTickCount>
    10012fac:	100507b7          	lui	a5,0x10050
    10012fb0:	5e87a783          	lw	a5,1512(a5) # 100505e8 <xTickCount>
    10012fb4:	d23e                	sw	a5,36(sp)
    10012fb6:	5792                	lw	a5,36(sp)
    10012fb8:	2781                	sext.w	a5,a5
    10012fba:	eba1                	bnez	a5,1001300a <xTaskIncrementTick+0x88>
    10012fbc:	100507b7          	lui	a5,0x10050
    10012fc0:	5507b783          	ld	a5,1360(a5) # 10050550 <pxDelayedTaskList>
    10012fc4:	639c                	ld	a5,0(a5)
    10012fc6:	c781                	beqz	a5,10012fce <xTaskIncrementTick+0x4c>
    10012fc8:	3000f073          	csrci	mstatus,1
    10012fcc:	a001                	j	10012fcc <xTaskIncrementTick+0x4a>
    10012fce:	100507b7          	lui	a5,0x10050
    10012fd2:	5507b783          	ld	a5,1360(a5) # 10050550 <pxDelayedTaskList>
    10012fd6:	ec3e                	sd	a5,24(sp)
    10012fd8:	100507b7          	lui	a5,0x10050
    10012fdc:	5587b703          	ld	a4,1368(a5) # 10050558 <pxOverflowDelayedTaskList>
    10012fe0:	100507b7          	lui	a5,0x10050
    10012fe4:	54e7b823          	sd	a4,1360(a5) # 10050550 <pxDelayedTaskList>
    10012fe8:	100507b7          	lui	a5,0x10050
    10012fec:	6762                	ld	a4,24(sp)
    10012fee:	54e7bc23          	sd	a4,1368(a5) # 10050558 <pxOverflowDelayedTaskList>
    10012ff2:	100507b7          	lui	a5,0x10050
    10012ff6:	6107b783          	ld	a5,1552(a5) # 10050610 <xNumOfOverflows>
    10012ffa:	00178713          	addi	a4,a5,1
    10012ffe:	100507b7          	lui	a5,0x10050
    10013002:	60e7b823          	sd	a4,1552(a5) # 10050610 <xNumOfOverflows>
    10013006:	321000ef          	jal	ra,10013b26 <prvResetNextTaskUnblockTime>
    1001300a:	100507b7          	lui	a5,0x10050
    1001300e:	6207a783          	lw	a5,1568(a5) # 10050620 <xNextTaskUnblockTime>
    10013012:	0007871b          	sext.w	a4,a5
    10013016:	5792                	lw	a5,36(sp)
    10013018:	2781                	sext.w	a5,a5
    1001301a:	0ce7e163          	bltu	a5,a4,100130dc <xTaskIncrementTick+0x15a>
    1001301e:	100507b7          	lui	a5,0x10050
    10013022:	5507b783          	ld	a5,1360(a5) # 10050550 <pxDelayedTaskList>
    10013026:	639c                	ld	a5,0(a5)
    10013028:	e399                	bnez	a5,1001302e <xTaskIncrementTick+0xac>
    1001302a:	4785                	li	a5,1
    1001302c:	a011                	j	10013030 <xTaskIncrementTick+0xae>
    1001302e:	4781                	li	a5,0
    10013030:	c799                	beqz	a5,1001303e <xTaskIncrementTick+0xbc>
    10013032:	100507b7          	lui	a5,0x10050
    10013036:	577d                	li	a4,-1
    10013038:	62e7a023          	sw	a4,1568(a5) # 10050620 <xNextTaskUnblockTime>
    1001303c:	a045                	j	100130dc <xTaskIncrementTick+0x15a>
    1001303e:	100507b7          	lui	a5,0x10050
    10013042:	5507b783          	ld	a5,1360(a5) # 10050550 <pxDelayedTaskList>
    10013046:	6f9c                	ld	a5,24(a5)
    10013048:	6f9c                	ld	a5,24(a5)
    1001304a:	e83e                	sd	a5,16(sp)
    1001304c:	67c2                	ld	a5,16(sp)
    1001304e:	479c                	lw	a5,8(a5)
    10013050:	c63e                	sw	a5,12(sp)
    10013052:	5712                	lw	a4,36(sp)
    10013054:	47b2                	lw	a5,12(sp)
    10013056:	2701                	sext.w	a4,a4
    10013058:	2781                	sext.w	a5,a5
    1001305a:	00f77863          	bgeu	a4,a5,1001306a <xTaskIncrementTick+0xe8>
    1001305e:	100507b7          	lui	a5,0x10050
    10013062:	4732                	lw	a4,12(sp)
    10013064:	62e7a023          	sw	a4,1568(a5) # 10050620 <xNextTaskUnblockTime>
    10013068:	a895                	j	100130dc <xTaskIncrementTick+0x15a>
    1001306a:	67c2                	ld	a5,16(sp)
    1001306c:	07a1                	addi	a5,a5,8
    1001306e:	853e                	mv	a0,a5
    10013070:	ebcfe0ef          	jal	ra,1001172c <uxListRemove>
    10013074:	67c2                	ld	a5,16(sp)
    10013076:	6bbc                	ld	a5,80(a5)
    10013078:	c799                	beqz	a5,10013086 <xTaskIncrementTick+0x104>
    1001307a:	67c2                	ld	a5,16(sp)
    1001307c:	03078793          	addi	a5,a5,48
    10013080:	853e                	mv	a0,a5
    10013082:	eaafe0ef          	jal	ra,1001172c <uxListRemove>
    10013086:	67c2                	ld	a5,16(sp)
    10013088:	6fb8                	ld	a4,88(a5)
    1001308a:	100507b7          	lui	a5,0x10050
    1001308e:	5f07b783          	ld	a5,1520(a5) # 100505f0 <uxTopReadyPriority>
    10013092:	00e7f863          	bgeu	a5,a4,100130a2 <xTaskIncrementTick+0x120>
    10013096:	67c2                	ld	a5,16(sp)
    10013098:	6fb8                	ld	a4,88(a5)
    1001309a:	100507b7          	lui	a5,0x10050
    1001309e:	5ee7b823          	sd	a4,1520(a5) # 100505f0 <uxTopReadyPriority>
    100130a2:	67c2                	ld	a5,16(sp)
    100130a4:	6fb8                	ld	a4,88(a5)
    100130a6:	87ba                	mv	a5,a4
    100130a8:	078a                	slli	a5,a5,0x2
    100130aa:	97ba                	add	a5,a5,a4
    100130ac:	078e                	slli	a5,a5,0x3
    100130ae:	10050737          	lui	a4,0x10050
    100130b2:	43870713          	addi	a4,a4,1080 # 10050438 <pxReadyTasksLists>
    100130b6:	973e                	add	a4,a4,a5
    100130b8:	67c2                	ld	a5,16(sp)
    100130ba:	07a1                	addi	a5,a5,8
    100130bc:	85be                	mv	a1,a5
    100130be:	853a                	mv	a0,a4
    100130c0:	dbcfe0ef          	jal	ra,1001167c <vListInsertEnd>
    100130c4:	67c2                	ld	a5,16(sp)
    100130c6:	6fb8                	ld	a4,88(a5)
    100130c8:	100507b7          	lui	a5,0x10050
    100130cc:	3107b783          	ld	a5,784(a5) # 10050310 <pxCurrentTCB>
    100130d0:	6fbc                	ld	a5,88(a5)
    100130d2:	f4f766e3          	bltu	a4,a5,1001301e <xTaskIncrementTick+0x9c>
    100130d6:	4785                	li	a5,1
    100130d8:	f43e                	sd	a5,40(sp)
    100130da:	b791                	j	1001301e <xTaskIncrementTick+0x9c>
    100130dc:	100507b7          	lui	a5,0x10050
    100130e0:	3107b783          	ld	a5,784(a5) # 10050310 <pxCurrentTCB>
    100130e4:	6fb8                	ld	a4,88(a5)
    100130e6:	100507b7          	lui	a5,0x10050
    100130ea:	43878693          	addi	a3,a5,1080 # 10050438 <pxReadyTasksLists>
    100130ee:	87ba                	mv	a5,a4
    100130f0:	078a                	slli	a5,a5,0x2
    100130f2:	97ba                	add	a5,a5,a4
    100130f4:	078e                	slli	a5,a5,0x3
    100130f6:	97b6                	add	a5,a5,a3
    100130f8:	6398                	ld	a4,0(a5)
    100130fa:	4785                	li	a5,1
    100130fc:	00e7ff63          	bgeu	a5,a4,1001311a <xTaskIncrementTick+0x198>
    10013100:	4785                	li	a5,1
    10013102:	f43e                	sd	a5,40(sp)
    10013104:	a819                	j	1001311a <xTaskIncrementTick+0x198>
    10013106:	100507b7          	lui	a5,0x10050
    1001310a:	6007b783          	ld	a5,1536(a5) # 10050600 <uxPendedTicks>
    1001310e:	00178713          	addi	a4,a5,1
    10013112:	100507b7          	lui	a5,0x10050
    10013116:	60e7b023          	sd	a4,1536(a5) # 10050600 <uxPendedTicks>
    1001311a:	100507b7          	lui	a5,0x10050
    1001311e:	6087b783          	ld	a5,1544(a5) # 10050608 <xYieldPending>
    10013122:	c399                	beqz	a5,10013128 <xTaskIncrementTick+0x1a6>
    10013124:	4785                	li	a5,1
    10013126:	f43e                	sd	a5,40(sp)
    10013128:	77a2                	ld	a5,40(sp)
    1001312a:	853e                	mv	a0,a5
    1001312c:	70e2                	ld	ra,56(sp)
    1001312e:	6121                	addi	sp,sp,64
    10013130:	8082                	ret

0000000010013132 <vTaskSwitchContext>:
    10013132:	7179                	addi	sp,sp,-48
    10013134:	f406                	sd	ra,40(sp)
    10013136:	100507b7          	lui	a5,0x10050
    1001313a:	6287b783          	ld	a5,1576(a5) # 10050628 <uxSchedulerSuspended>
    1001313e:	c799                	beqz	a5,1001314c <vTaskSwitchContext+0x1a>
    10013140:	100507b7          	lui	a5,0x10050
    10013144:	4705                	li	a4,1
    10013146:	60e7b423          	sd	a4,1544(a5) # 10050608 <xYieldPending>
    1001314a:	a201                	j	1001324a <vTaskSwitchContext+0x118>
    1001314c:	100507b7          	lui	a5,0x10050
    10013150:	6007b423          	sd	zero,1544(a5) # 10050608 <xYieldPending>
    10013154:	100507b7          	lui	a5,0x10050
    10013158:	3107b783          	ld	a5,784(a5) # 10050310 <pxCurrentTCB>
    1001315c:	73bc                	ld	a5,96(a5)
    1001315e:	ec3e                	sd	a5,24(sp)
    10013160:	a5a5a7b7          	lui	a5,0xa5a5a
    10013164:	5a57879b          	addiw	a5,a5,1445
    10013168:	ca3e                	sw	a5,20(sp)
    1001316a:	67e2                	ld	a5,24(sp)
    1001316c:	4398                	lw	a4,0(a5)
    1001316e:	47d2                	lw	a5,20(sp)
    10013170:	2781                	sext.w	a5,a5
    10013172:	02e79763          	bne	a5,a4,100131a0 <vTaskSwitchContext+0x6e>
    10013176:	67e2                	ld	a5,24(sp)
    10013178:	0791                	addi	a5,a5,4
    1001317a:	4398                	lw	a4,0(a5)
    1001317c:	47d2                	lw	a5,20(sp)
    1001317e:	2781                	sext.w	a5,a5
    10013180:	02e79063          	bne	a5,a4,100131a0 <vTaskSwitchContext+0x6e>
    10013184:	67e2                	ld	a5,24(sp)
    10013186:	07a1                	addi	a5,a5,8
    10013188:	4398                	lw	a4,0(a5)
    1001318a:	47d2                	lw	a5,20(sp)
    1001318c:	2781                	sext.w	a5,a5
    1001318e:	00e79963          	bne	a5,a4,100131a0 <vTaskSwitchContext+0x6e>
    10013192:	67e2                	ld	a5,24(sp)
    10013194:	07b1                	addi	a5,a5,12
    10013196:	4398                	lw	a4,0(a5)
    10013198:	47d2                	lw	a5,20(sp)
    1001319a:	2781                	sext.w	a5,a5
    1001319c:	04e78363          	beq	a5,a4,100131e2 <vTaskSwitchContext+0xb0>
    100131a0:	100507b7          	lui	a5,0x10050
    100131a4:	3107b703          	ld	a4,784(a5) # 10050310 <pxCurrentTCB>
    100131a8:	100507b7          	lui	a5,0x10050
    100131ac:	3107b783          	ld	a5,784(a5) # 10050310 <pxCurrentTCB>
    100131b0:	06878793          	addi	a5,a5,104
    100131b4:	85be                	mv	a1,a5
    100131b6:	853a                	mv	a0,a4
    100131b8:	00d020ef          	jal	ra,100159c4 <vApplicationStackOverflowHook>
    100131bc:	a01d                	j	100131e2 <vTaskSwitchContext+0xb0>
    100131be:	100507b7          	lui	a5,0x10050
    100131c2:	5f07b783          	ld	a5,1520(a5) # 100505f0 <uxTopReadyPriority>
    100131c6:	e781                	bnez	a5,100131ce <vTaskSwitchContext+0x9c>
    100131c8:	3000f073          	csrci	mstatus,1
    100131cc:	a001                	j	100131cc <vTaskSwitchContext+0x9a>
    100131ce:	100507b7          	lui	a5,0x10050
    100131d2:	5f07b783          	ld	a5,1520(a5) # 100505f0 <uxTopReadyPriority>
    100131d6:	fff78713          	addi	a4,a5,-1
    100131da:	100507b7          	lui	a5,0x10050
    100131de:	5ee7b823          	sd	a4,1520(a5) # 100505f0 <uxTopReadyPriority>
    100131e2:	100507b7          	lui	a5,0x10050
    100131e6:	5f07b703          	ld	a4,1520(a5) # 100505f0 <uxTopReadyPriority>
    100131ea:	100507b7          	lui	a5,0x10050
    100131ee:	43878693          	addi	a3,a5,1080 # 10050438 <pxReadyTasksLists>
    100131f2:	87ba                	mv	a5,a4
    100131f4:	078a                	slli	a5,a5,0x2
    100131f6:	97ba                	add	a5,a5,a4
    100131f8:	078e                	slli	a5,a5,0x3
    100131fa:	97b6                	add	a5,a5,a3
    100131fc:	639c                	ld	a5,0(a5)
    100131fe:	d3e1                	beqz	a5,100131be <vTaskSwitchContext+0x8c>
    10013200:	100507b7          	lui	a5,0x10050
    10013204:	5f07b703          	ld	a4,1520(a5) # 100505f0 <uxTopReadyPriority>
    10013208:	87ba                	mv	a5,a4
    1001320a:	078a                	slli	a5,a5,0x2
    1001320c:	97ba                	add	a5,a5,a4
    1001320e:	078e                	slli	a5,a5,0x3
    10013210:	10050737          	lui	a4,0x10050
    10013214:	43870713          	addi	a4,a4,1080 # 10050438 <pxReadyTasksLists>
    10013218:	97ba                	add	a5,a5,a4
    1001321a:	e43e                	sd	a5,8(sp)
    1001321c:	67a2                	ld	a5,8(sp)
    1001321e:	679c                	ld	a5,8(a5)
    10013220:	6798                	ld	a4,8(a5)
    10013222:	67a2                	ld	a5,8(sp)
    10013224:	e798                	sd	a4,8(a5)
    10013226:	67a2                	ld	a5,8(sp)
    10013228:	6798                	ld	a4,8(a5)
    1001322a:	67a2                	ld	a5,8(sp)
    1001322c:	07c1                	addi	a5,a5,16
    1001322e:	00f71763          	bne	a4,a5,1001323c <vTaskSwitchContext+0x10a>
    10013232:	67a2                	ld	a5,8(sp)
    10013234:	679c                	ld	a5,8(a5)
    10013236:	6798                	ld	a4,8(a5)
    10013238:	67a2                	ld	a5,8(sp)
    1001323a:	e798                	sd	a4,8(a5)
    1001323c:	67a2                	ld	a5,8(sp)
    1001323e:	679c                	ld	a5,8(a5)
    10013240:	6f98                	ld	a4,24(a5)
    10013242:	100507b7          	lui	a5,0x10050
    10013246:	30e7b823          	sd	a4,784(a5) # 10050310 <pxCurrentTCB>
    1001324a:	0001                	nop
    1001324c:	70a2                	ld	ra,40(sp)
    1001324e:	6145                	addi	sp,sp,48
    10013250:	8082                	ret

0000000010013252 <vTaskPlaceOnEventList>:
    10013252:	7179                	addi	sp,sp,-48
    10013254:	f406                	sd	ra,40(sp)
    10013256:	e42a                	sd	a0,8(sp)
    10013258:	87ae                	mv	a5,a1
    1001325a:	c23e                	sw	a5,4(sp)
    1001325c:	67a2                	ld	a5,8(sp)
    1001325e:	e781                	bnez	a5,10013266 <vTaskPlaceOnEventList+0x14>
    10013260:	3000f073          	csrci	mstatus,1
    10013264:	a001                	j	10013264 <vTaskPlaceOnEventList+0x12>
    10013266:	100507b7          	lui	a5,0x10050
    1001326a:	3107b783          	ld	a5,784(a5) # 10050310 <pxCurrentTCB>
    1001326e:	03078793          	addi	a5,a5,48
    10013272:	85be                	mv	a1,a5
    10013274:	6522                	ld	a0,8(sp)
    10013276:	c46fe0ef          	jal	ra,100116bc <vListInsert>
    1001327a:	100507b7          	lui	a5,0x10050
    1001327e:	3107b783          	ld	a5,784(a5) # 10050310 <pxCurrentTCB>
    10013282:	07a1                	addi	a5,a5,8
    10013284:	853e                	mv	a0,a5
    10013286:	ca6fe0ef          	jal	ra,1001172c <uxListRemove>
    1001328a:	4792                	lw	a5,4(sp)
    1001328c:	0007871b          	sext.w	a4,a5
    10013290:	57fd                	li	a5,-1
    10013292:	00f71f63          	bne	a4,a5,100132b0 <vTaskPlaceOnEventList+0x5e>
    10013296:	100507b7          	lui	a5,0x10050
    1001329a:	3107b783          	ld	a5,784(a5) # 10050310 <pxCurrentTCB>
    1001329e:	07a1                	addi	a5,a5,8
    100132a0:	85be                	mv	a1,a5
    100132a2:	100507b7          	lui	a5,0x10050
    100132a6:	5b878513          	addi	a0,a5,1464 # 100505b8 <xSuspendedTaskList>
    100132aa:	bd2fe0ef          	jal	ra,1001167c <vListInsertEnd>
    100132ae:	a829                	j	100132c8 <vTaskPlaceOnEventList+0x76>
    100132b0:	100507b7          	lui	a5,0x10050
    100132b4:	5e87a783          	lw	a5,1512(a5) # 100505e8 <xTickCount>
    100132b8:	2781                	sext.w	a5,a5
    100132ba:	4712                	lw	a4,4(sp)
    100132bc:	9fb9                	addw	a5,a5,a4
    100132be:	ce3e                	sw	a5,28(sp)
    100132c0:	47f2                	lw	a5,28(sp)
    100132c2:	853e                	mv	a0,a5
    100132c4:	5b4000ef          	jal	ra,10013878 <prvAddCurrentTaskToDelayedList>
    100132c8:	0001                	nop
    100132ca:	70a2                	ld	ra,40(sp)
    100132cc:	6145                	addi	sp,sp,48
    100132ce:	8082                	ret

00000000100132d0 <vTaskPlaceOnUnorderedEventList>:
    100132d0:	7179                	addi	sp,sp,-48
    100132d2:	f406                	sd	ra,40(sp)
    100132d4:	e42a                	sd	a0,8(sp)
    100132d6:	87ae                	mv	a5,a1
    100132d8:	8732                	mv	a4,a2
    100132da:	c23e                	sw	a5,4(sp)
    100132dc:	87ba                	mv	a5,a4
    100132de:	c03e                	sw	a5,0(sp)
    100132e0:	67a2                	ld	a5,8(sp)
    100132e2:	e781                	bnez	a5,100132ea <vTaskPlaceOnUnorderedEventList+0x1a>
    100132e4:	3000f073          	csrci	mstatus,1
    100132e8:	a001                	j	100132e8 <vTaskPlaceOnUnorderedEventList+0x18>
    100132ea:	100507b7          	lui	a5,0x10050
    100132ee:	6287b783          	ld	a5,1576(a5) # 10050628 <uxSchedulerSuspended>
    100132f2:	e781                	bnez	a5,100132fa <vTaskPlaceOnUnorderedEventList+0x2a>
    100132f4:	3000f073          	csrci	mstatus,1
    100132f8:	a001                	j	100132f8 <vTaskPlaceOnUnorderedEventList+0x28>
    100132fa:	100507b7          	lui	a5,0x10050
    100132fe:	3107b783          	ld	a5,784(a5) # 10050310 <pxCurrentTCB>
    10013302:	4692                	lw	a3,4(sp)
    10013304:	80000737          	lui	a4,0x80000
    10013308:	8f55                	or	a4,a4,a3
    1001330a:	2701                	sext.w	a4,a4
    1001330c:	db98                	sw	a4,48(a5)
    1001330e:	100507b7          	lui	a5,0x10050
    10013312:	3107b783          	ld	a5,784(a5) # 10050310 <pxCurrentTCB>
    10013316:	03078793          	addi	a5,a5,48
    1001331a:	85be                	mv	a1,a5
    1001331c:	6522                	ld	a0,8(sp)
    1001331e:	b5efe0ef          	jal	ra,1001167c <vListInsertEnd>
    10013322:	100507b7          	lui	a5,0x10050
    10013326:	3107b783          	ld	a5,784(a5) # 10050310 <pxCurrentTCB>
    1001332a:	07a1                	addi	a5,a5,8
    1001332c:	853e                	mv	a0,a5
    1001332e:	bfefe0ef          	jal	ra,1001172c <uxListRemove>
    10013332:	4782                	lw	a5,0(sp)
    10013334:	0007871b          	sext.w	a4,a5
    10013338:	57fd                	li	a5,-1
    1001333a:	00f71f63          	bne	a4,a5,10013358 <vTaskPlaceOnUnorderedEventList+0x88>
    1001333e:	100507b7          	lui	a5,0x10050
    10013342:	3107b783          	ld	a5,784(a5) # 10050310 <pxCurrentTCB>
    10013346:	07a1                	addi	a5,a5,8
    10013348:	85be                	mv	a1,a5
    1001334a:	100507b7          	lui	a5,0x10050
    1001334e:	5b878513          	addi	a0,a5,1464 # 100505b8 <xSuspendedTaskList>
    10013352:	b2afe0ef          	jal	ra,1001167c <vListInsertEnd>
    10013356:	a829                	j	10013370 <vTaskPlaceOnUnorderedEventList+0xa0>
    10013358:	100507b7          	lui	a5,0x10050
    1001335c:	5e87a783          	lw	a5,1512(a5) # 100505e8 <xTickCount>
    10013360:	2781                	sext.w	a5,a5
    10013362:	4702                	lw	a4,0(sp)
    10013364:	9fb9                	addw	a5,a5,a4
    10013366:	ce3e                	sw	a5,28(sp)
    10013368:	47f2                	lw	a5,28(sp)
    1001336a:	853e                	mv	a0,a5
    1001336c:	50c000ef          	jal	ra,10013878 <prvAddCurrentTaskToDelayedList>
    10013370:	0001                	nop
    10013372:	70a2                	ld	ra,40(sp)
    10013374:	6145                	addi	sp,sp,48
    10013376:	8082                	ret

0000000010013378 <vTaskPlaceOnEventListRestricted>:
    10013378:	7139                	addi	sp,sp,-64
    1001337a:	fc06                	sd	ra,56(sp)
    1001337c:	ec2a                	sd	a0,24(sp)
    1001337e:	87ae                	mv	a5,a1
    10013380:	e432                	sd	a2,8(sp)
    10013382:	ca3e                	sw	a5,20(sp)
    10013384:	67e2                	ld	a5,24(sp)
    10013386:	e781                	bnez	a5,1001338e <vTaskPlaceOnEventListRestricted+0x16>
    10013388:	3000f073          	csrci	mstatus,1
    1001338c:	a001                	j	1001338c <vTaskPlaceOnEventListRestricted+0x14>
    1001338e:	100507b7          	lui	a5,0x10050
    10013392:	3107b783          	ld	a5,784(a5) # 10050310 <pxCurrentTCB>
    10013396:	03078793          	addi	a5,a5,48
    1001339a:	85be                	mv	a1,a5
    1001339c:	6562                	ld	a0,24(sp)
    1001339e:	adefe0ef          	jal	ra,1001167c <vListInsertEnd>
    100133a2:	100507b7          	lui	a5,0x10050
    100133a6:	3107b783          	ld	a5,784(a5) # 10050310 <pxCurrentTCB>
    100133aa:	07a1                	addi	a5,a5,8
    100133ac:	853e                	mv	a0,a5
    100133ae:	b7efe0ef          	jal	ra,1001172c <uxListRemove>
    100133b2:	6722                	ld	a4,8(sp)
    100133b4:	4785                	li	a5,1
    100133b6:	00f71f63          	bne	a4,a5,100133d4 <vTaskPlaceOnEventListRestricted+0x5c>
    100133ba:	100507b7          	lui	a5,0x10050
    100133be:	3107b783          	ld	a5,784(a5) # 10050310 <pxCurrentTCB>
    100133c2:	07a1                	addi	a5,a5,8
    100133c4:	85be                	mv	a1,a5
    100133c6:	100507b7          	lui	a5,0x10050
    100133ca:	5b878513          	addi	a0,a5,1464 # 100505b8 <xSuspendedTaskList>
    100133ce:	aaefe0ef          	jal	ra,1001167c <vListInsertEnd>
    100133d2:	a829                	j	100133ec <vTaskPlaceOnEventListRestricted+0x74>
    100133d4:	100507b7          	lui	a5,0x10050
    100133d8:	5e87a783          	lw	a5,1512(a5) # 100505e8 <xTickCount>
    100133dc:	2781                	sext.w	a5,a5
    100133de:	4752                	lw	a4,20(sp)
    100133e0:	9fb9                	addw	a5,a5,a4
    100133e2:	d63e                	sw	a5,44(sp)
    100133e4:	57b2                	lw	a5,44(sp)
    100133e6:	853e                	mv	a0,a5
    100133e8:	490000ef          	jal	ra,10013878 <prvAddCurrentTaskToDelayedList>
    100133ec:	0001                	nop
    100133ee:	70e2                	ld	ra,56(sp)
    100133f0:	6121                	addi	sp,sp,64
    100133f2:	8082                	ret

00000000100133f4 <xTaskRemoveFromEventList>:
    100133f4:	7179                	addi	sp,sp,-48
    100133f6:	f406                	sd	ra,40(sp)
    100133f8:	e42a                	sd	a0,8(sp)
    100133fa:	67a2                	ld	a5,8(sp)
    100133fc:	6f9c                	ld	a5,24(a5)
    100133fe:	6f9c                	ld	a5,24(a5)
    10013400:	e83e                	sd	a5,16(sp)
    10013402:	67c2                	ld	a5,16(sp)
    10013404:	e781                	bnez	a5,1001340c <xTaskRemoveFromEventList+0x18>
    10013406:	3000f073          	csrci	mstatus,1
    1001340a:	a001                	j	1001340a <xTaskRemoveFromEventList+0x16>
    1001340c:	67c2                	ld	a5,16(sp)
    1001340e:	03078793          	addi	a5,a5,48
    10013412:	853e                	mv	a0,a5
    10013414:	b18fe0ef          	jal	ra,1001172c <uxListRemove>
    10013418:	100507b7          	lui	a5,0x10050
    1001341c:	6287b783          	ld	a5,1576(a5) # 10050628 <uxSchedulerSuspended>
    10013420:	e7b1                	bnez	a5,1001346c <xTaskRemoveFromEventList+0x78>
    10013422:	67c2                	ld	a5,16(sp)
    10013424:	07a1                	addi	a5,a5,8
    10013426:	853e                	mv	a0,a5
    10013428:	b04fe0ef          	jal	ra,1001172c <uxListRemove>
    1001342c:	67c2                	ld	a5,16(sp)
    1001342e:	6fb8                	ld	a4,88(a5)
    10013430:	100507b7          	lui	a5,0x10050
    10013434:	5f07b783          	ld	a5,1520(a5) # 100505f0 <uxTopReadyPriority>
    10013438:	00e7f863          	bgeu	a5,a4,10013448 <xTaskRemoveFromEventList+0x54>
    1001343c:	67c2                	ld	a5,16(sp)
    1001343e:	6fb8                	ld	a4,88(a5)
    10013440:	100507b7          	lui	a5,0x10050
    10013444:	5ee7b823          	sd	a4,1520(a5) # 100505f0 <uxTopReadyPriority>
    10013448:	67c2                	ld	a5,16(sp)
    1001344a:	6fb8                	ld	a4,88(a5)
    1001344c:	87ba                	mv	a5,a4
    1001344e:	078a                	slli	a5,a5,0x2
    10013450:	97ba                	add	a5,a5,a4
    10013452:	078e                	slli	a5,a5,0x3
    10013454:	10050737          	lui	a4,0x10050
    10013458:	43870713          	addi	a4,a4,1080 # 10050438 <pxReadyTasksLists>
    1001345c:	973e                	add	a4,a4,a5
    1001345e:	67c2                	ld	a5,16(sp)
    10013460:	07a1                	addi	a5,a5,8
    10013462:	85be                	mv	a1,a5
    10013464:	853a                	mv	a0,a4
    10013466:	a16fe0ef          	jal	ra,1001167c <vListInsertEnd>
    1001346a:	a819                	j	10013480 <xTaskRemoveFromEventList+0x8c>
    1001346c:	67c2                	ld	a5,16(sp)
    1001346e:	03078793          	addi	a5,a5,48
    10013472:	85be                	mv	a1,a5
    10013474:	100507b7          	lui	a5,0x10050
    10013478:	56078513          	addi	a0,a5,1376 # 10050560 <xPendingReadyList>
    1001347c:	a00fe0ef          	jal	ra,1001167c <vListInsertEnd>
    10013480:	67c2                	ld	a5,16(sp)
    10013482:	6fb8                	ld	a4,88(a5)
    10013484:	100507b7          	lui	a5,0x10050
    10013488:	3107b783          	ld	a5,784(a5) # 10050310 <pxCurrentTCB>
    1001348c:	6fbc                	ld	a5,88(a5)
    1001348e:	00e7fa63          	bgeu	a5,a4,100134a2 <xTaskRemoveFromEventList+0xae>
    10013492:	4785                	li	a5,1
    10013494:	ec3e                	sd	a5,24(sp)
    10013496:	100507b7          	lui	a5,0x10050
    1001349a:	4705                	li	a4,1
    1001349c:	60e7b423          	sd	a4,1544(a5) # 10050608 <xYieldPending>
    100134a0:	a011                	j	100134a4 <xTaskRemoveFromEventList+0xb0>
    100134a2:	ec02                	sd	zero,24(sp)
    100134a4:	67e2                	ld	a5,24(sp)
    100134a6:	853e                	mv	a0,a5
    100134a8:	70a2                	ld	ra,40(sp)
    100134aa:	6145                	addi	sp,sp,48
    100134ac:	8082                	ret

00000000100134ae <xTaskRemoveFromUnorderedEventList>:
    100134ae:	7179                	addi	sp,sp,-48
    100134b0:	f406                	sd	ra,40(sp)
    100134b2:	e42a                	sd	a0,8(sp)
    100134b4:	87ae                	mv	a5,a1
    100134b6:	c23e                	sw	a5,4(sp)
    100134b8:	100507b7          	lui	a5,0x10050
    100134bc:	6287b783          	ld	a5,1576(a5) # 10050628 <uxSchedulerSuspended>
    100134c0:	e781                	bnez	a5,100134c8 <xTaskRemoveFromUnorderedEventList+0x1a>
    100134c2:	3000f073          	csrci	mstatus,1
    100134c6:	a001                	j	100134c6 <xTaskRemoveFromUnorderedEventList+0x18>
    100134c8:	4712                	lw	a4,4(sp)
    100134ca:	800007b7          	lui	a5,0x80000
    100134ce:	8fd9                	or	a5,a5,a4
    100134d0:	0007871b          	sext.w	a4,a5
    100134d4:	67a2                	ld	a5,8(sp)
    100134d6:	c398                	sw	a4,0(a5)
    100134d8:	67a2                	ld	a5,8(sp)
    100134da:	6f9c                	ld	a5,24(a5)
    100134dc:	e83e                	sd	a5,16(sp)
    100134de:	67c2                	ld	a5,16(sp)
    100134e0:	e781                	bnez	a5,100134e8 <xTaskRemoveFromUnorderedEventList+0x3a>
    100134e2:	3000f073          	csrci	mstatus,1
    100134e6:	a001                	j	100134e6 <xTaskRemoveFromUnorderedEventList+0x38>
    100134e8:	6522                	ld	a0,8(sp)
    100134ea:	a42fe0ef          	jal	ra,1001172c <uxListRemove>
    100134ee:	67c2                	ld	a5,16(sp)
    100134f0:	07a1                	addi	a5,a5,8
    100134f2:	853e                	mv	a0,a5
    100134f4:	a38fe0ef          	jal	ra,1001172c <uxListRemove>
    100134f8:	67c2                	ld	a5,16(sp)
    100134fa:	6fb8                	ld	a4,88(a5)
    100134fc:	100507b7          	lui	a5,0x10050
    10013500:	5f07b783          	ld	a5,1520(a5) # 100505f0 <uxTopReadyPriority>
    10013504:	00e7f863          	bgeu	a5,a4,10013514 <xTaskRemoveFromUnorderedEventList+0x66>
    10013508:	67c2                	ld	a5,16(sp)
    1001350a:	6fb8                	ld	a4,88(a5)
    1001350c:	100507b7          	lui	a5,0x10050
    10013510:	5ee7b823          	sd	a4,1520(a5) # 100505f0 <uxTopReadyPriority>
    10013514:	67c2                	ld	a5,16(sp)
    10013516:	6fb8                	ld	a4,88(a5)
    10013518:	87ba                	mv	a5,a4
    1001351a:	078a                	slli	a5,a5,0x2
    1001351c:	97ba                	add	a5,a5,a4
    1001351e:	078e                	slli	a5,a5,0x3
    10013520:	10050737          	lui	a4,0x10050
    10013524:	43870713          	addi	a4,a4,1080 # 10050438 <pxReadyTasksLists>
    10013528:	973e                	add	a4,a4,a5
    1001352a:	67c2                	ld	a5,16(sp)
    1001352c:	07a1                	addi	a5,a5,8
    1001352e:	85be                	mv	a1,a5
    10013530:	853a                	mv	a0,a4
    10013532:	94afe0ef          	jal	ra,1001167c <vListInsertEnd>
    10013536:	67c2                	ld	a5,16(sp)
    10013538:	6fb8                	ld	a4,88(a5)
    1001353a:	100507b7          	lui	a5,0x10050
    1001353e:	3107b783          	ld	a5,784(a5) # 10050310 <pxCurrentTCB>
    10013542:	6fbc                	ld	a5,88(a5)
    10013544:	00e7fa63          	bgeu	a5,a4,10013558 <xTaskRemoveFromUnorderedEventList+0xaa>
    10013548:	4785                	li	a5,1
    1001354a:	ec3e                	sd	a5,24(sp)
    1001354c:	100507b7          	lui	a5,0x10050
    10013550:	4705                	li	a4,1
    10013552:	60e7b423          	sd	a4,1544(a5) # 10050608 <xYieldPending>
    10013556:	a011                	j	1001355a <xTaskRemoveFromUnorderedEventList+0xac>
    10013558:	ec02                	sd	zero,24(sp)
    1001355a:	67e2                	ld	a5,24(sp)
    1001355c:	853e                	mv	a0,a5
    1001355e:	70a2                	ld	ra,40(sp)
    10013560:	6145                	addi	sp,sp,48
    10013562:	8082                	ret

0000000010013564 <vTaskSetTimeOutState>:
    10013564:	1141                	addi	sp,sp,-16
    10013566:	e42a                	sd	a0,8(sp)
    10013568:	67a2                	ld	a5,8(sp)
    1001356a:	e781                	bnez	a5,10013572 <vTaskSetTimeOutState+0xe>
    1001356c:	3000f073          	csrci	mstatus,1
    10013570:	a001                	j	10013570 <vTaskSetTimeOutState+0xc>
    10013572:	100507b7          	lui	a5,0x10050
    10013576:	6107b703          	ld	a4,1552(a5) # 10050610 <xNumOfOverflows>
    1001357a:	67a2                	ld	a5,8(sp)
    1001357c:	e398                	sd	a4,0(a5)
    1001357e:	100507b7          	lui	a5,0x10050
    10013582:	5e87a783          	lw	a5,1512(a5) # 100505e8 <xTickCount>
    10013586:	0007871b          	sext.w	a4,a5
    1001358a:	67a2                	ld	a5,8(sp)
    1001358c:	c798                	sw	a4,8(a5)
    1001358e:	0001                	nop
    10013590:	0141                	addi	sp,sp,16
    10013592:	8082                	ret

0000000010013594 <xTaskCheckForTimeOut>:
    10013594:	7179                	addi	sp,sp,-48
    10013596:	f406                	sd	ra,40(sp)
    10013598:	e42a                	sd	a0,8(sp)
    1001359a:	e02e                	sd	a1,0(sp)
    1001359c:	67a2                	ld	a5,8(sp)
    1001359e:	e781                	bnez	a5,100135a6 <xTaskCheckForTimeOut+0x12>
    100135a0:	3000f073          	csrci	mstatus,1
    100135a4:	a001                	j	100135a4 <xTaskCheckForTimeOut+0x10>
    100135a6:	6782                	ld	a5,0(sp)
    100135a8:	e781                	bnez	a5,100135b0 <xTaskCheckForTimeOut+0x1c>
    100135aa:	3000f073          	csrci	mstatus,1
    100135ae:	a001                	j	100135ae <xTaskCheckForTimeOut+0x1a>
    100135b0:	790000ef          	jal	ra,10013d40 <vTaskEnterCritical>
    100135b4:	100507b7          	lui	a5,0x10050
    100135b8:	5e87a783          	lw	a5,1512(a5) # 100505e8 <xTickCount>
    100135bc:	ca3e                	sw	a5,20(sp)
    100135be:	6782                	ld	a5,0(sp)
    100135c0:	439c                	lw	a5,0(a5)
    100135c2:	873e                	mv	a4,a5
    100135c4:	57fd                	li	a5,-1
    100135c6:	00f71463          	bne	a4,a5,100135ce <xTaskCheckForTimeOut+0x3a>
    100135ca:	ec02                	sd	zero,24(sp)
    100135cc:	a08d                	j	1001362e <xTaskCheckForTimeOut+0x9a>
    100135ce:	67a2                	ld	a5,8(sp)
    100135d0:	6398                	ld	a4,0(a5)
    100135d2:	100507b7          	lui	a5,0x10050
    100135d6:	6107b783          	ld	a5,1552(a5) # 10050610 <xNumOfOverflows>
    100135da:	00f70b63          	beq	a4,a5,100135f0 <xTaskCheckForTimeOut+0x5c>
    100135de:	67a2                	ld	a5,8(sp)
    100135e0:	4798                	lw	a4,8(a5)
    100135e2:	47d2                	lw	a5,20(sp)
    100135e4:	2781                	sext.w	a5,a5
    100135e6:	00e7e563          	bltu	a5,a4,100135f0 <xTaskCheckForTimeOut+0x5c>
    100135ea:	4785                	li	a5,1
    100135ec:	ec3e                	sd	a5,24(sp)
    100135ee:	a081                	j	1001362e <xTaskCheckForTimeOut+0x9a>
    100135f0:	67a2                	ld	a5,8(sp)
    100135f2:	479c                	lw	a5,8(a5)
    100135f4:	4752                	lw	a4,20(sp)
    100135f6:	40f707bb          	subw	a5,a4,a5
    100135fa:	0007871b          	sext.w	a4,a5
    100135fe:	6782                	ld	a5,0(sp)
    10013600:	439c                	lw	a5,0(a5)
    10013602:	02f77463          	bgeu	a4,a5,1001362a <xTaskCheckForTimeOut+0x96>
    10013606:	6782                	ld	a5,0(sp)
    10013608:	4398                	lw	a4,0(a5)
    1001360a:	67a2                	ld	a5,8(sp)
    1001360c:	4794                	lw	a3,8(a5)
    1001360e:	47d2                	lw	a5,20(sp)
    10013610:	40f687bb          	subw	a5,a3,a5
    10013614:	2781                	sext.w	a5,a5
    10013616:	9fb9                	addw	a5,a5,a4
    10013618:	0007871b          	sext.w	a4,a5
    1001361c:	6782                	ld	a5,0(sp)
    1001361e:	c398                	sw	a4,0(a5)
    10013620:	6522                	ld	a0,8(sp)
    10013622:	f43ff0ef          	jal	ra,10013564 <vTaskSetTimeOutState>
    10013626:	ec02                	sd	zero,24(sp)
    10013628:	a019                	j	1001362e <xTaskCheckForTimeOut+0x9a>
    1001362a:	4785                	li	a5,1
    1001362c:	ec3e                	sd	a5,24(sp)
    1001362e:	73a000ef          	jal	ra,10013d68 <vTaskExitCritical>
    10013632:	67e2                	ld	a5,24(sp)
    10013634:	853e                	mv	a0,a5
    10013636:	70a2                	ld	ra,40(sp)
    10013638:	6145                	addi	sp,sp,48
    1001363a:	8082                	ret

000000001001363c <vTaskMissedYield>:
    1001363c:	100507b7          	lui	a5,0x10050
    10013640:	4705                	li	a4,1
    10013642:	60e7b423          	sd	a4,1544(a5) # 10050608 <xYieldPending>
    10013646:	0001                	nop
    10013648:	8082                	ret

000000001001364a <uxTaskGetTaskNumber>:
    1001364a:	1101                	addi	sp,sp,-32
    1001364c:	e42a                	sd	a0,8(sp)
    1001364e:	67a2                	ld	a5,8(sp)
    10013650:	c799                	beqz	a5,1001365e <uxTaskGetTaskNumber+0x14>
    10013652:	67a2                	ld	a5,8(sp)
    10013654:	e83e                	sd	a5,16(sp)
    10013656:	67c2                	ld	a5,16(sp)
    10013658:	67dc                	ld	a5,136(a5)
    1001365a:	ec3e                	sd	a5,24(sp)
    1001365c:	a011                	j	10013660 <uxTaskGetTaskNumber+0x16>
    1001365e:	ec02                	sd	zero,24(sp)
    10013660:	67e2                	ld	a5,24(sp)
    10013662:	853e                	mv	a0,a5
    10013664:	6105                	addi	sp,sp,32
    10013666:	8082                	ret

0000000010013668 <vTaskSetTaskNumber>:
    10013668:	1101                	addi	sp,sp,-32
    1001366a:	e42a                	sd	a0,8(sp)
    1001366c:	e02e                	sd	a1,0(sp)
    1001366e:	67a2                	ld	a5,8(sp)
    10013670:	c791                	beqz	a5,1001367c <vTaskSetTaskNumber+0x14>
    10013672:	67a2                	ld	a5,8(sp)
    10013674:	ec3e                	sd	a5,24(sp)
    10013676:	67e2                	ld	a5,24(sp)
    10013678:	6702                	ld	a4,0(sp)
    1001367a:	e7d8                	sd	a4,136(a5)
    1001367c:	0001                	nop
    1001367e:	6105                	addi	sp,sp,32
    10013680:	8082                	ret

0000000010013682 <prvIdleTask>:
    10013682:	1101                	addi	sp,sp,-32
    10013684:	ec06                	sd	ra,24(sp)
    10013686:	e42a                	sd	a0,8(sp)
    10013688:	168000ef          	jal	ra,100137f0 <prvCheckTasksWaitingTermination>
    1001368c:	100507b7          	lui	a5,0x10050
    10013690:	43878793          	addi	a5,a5,1080 # 10050438 <pxReadyTasksLists>
    10013694:	6398                	ld	a4,0(a5)
    10013696:	4785                	li	a5,1
    10013698:	fee7f8e3          	bgeu	a5,a4,10013688 <prvIdleTask+0x6>
    1001369c:	e3bfd0ef          	jal	ra,100114d6 <vPortYield>
    100136a0:	b7e5                	j	10013688 <prvIdleTask+0x6>

00000000100136a2 <prvInitialiseTCBVariables>:
    100136a2:	715d                	addi	sp,sp,-80
    100136a4:	e486                	sd	ra,72(sp)
    100136a6:	f42a                	sd	a0,40(sp)
    100136a8:	f02e                	sd	a1,32(sp)
    100136aa:	ec32                	sd	a2,24(sp)
    100136ac:	e836                	sd	a3,16(sp)
    100136ae:	87ba                	mv	a5,a4
    100136b0:	00f11723          	sh	a5,14(sp)
    100136b4:	fc02                	sd	zero,56(sp)
    100136b6:	a025                	j	100136de <prvInitialiseTCBVariables+0x3c>
    100136b8:	7702                	ld	a4,32(sp)
    100136ba:	77e2                	ld	a5,56(sp)
    100136bc:	97ba                	add	a5,a5,a4
    100136be:	0007c703          	lbu	a4,0(a5)
    100136c2:	76a2                	ld	a3,40(sp)
    100136c4:	77e2                	ld	a5,56(sp)
    100136c6:	97b6                	add	a5,a5,a3
    100136c8:	06e78423          	sb	a4,104(a5)
    100136cc:	7702                	ld	a4,32(sp)
    100136ce:	77e2                	ld	a5,56(sp)
    100136d0:	97ba                	add	a5,a5,a4
    100136d2:	0007c783          	lbu	a5,0(a5)
    100136d6:	cb89                	beqz	a5,100136e8 <prvInitialiseTCBVariables+0x46>
    100136d8:	77e2                	ld	a5,56(sp)
    100136da:	0785                	addi	a5,a5,1
    100136dc:	fc3e                	sd	a5,56(sp)
    100136de:	7762                	ld	a4,56(sp)
    100136e0:	47bd                	li	a5,15
    100136e2:	fce7fbe3          	bgeu	a5,a4,100136b8 <prvInitialiseTCBVariables+0x16>
    100136e6:	a011                	j	100136ea <prvInitialiseTCBVariables+0x48>
    100136e8:	0001                	nop
    100136ea:	77a2                	ld	a5,40(sp)
    100136ec:	06078ba3          	sb	zero,119(a5)
    100136f0:	6762                	ld	a4,24(sp)
    100136f2:	4791                	li	a5,4
    100136f4:	00e7f463          	bgeu	a5,a4,100136fc <prvInitialiseTCBVariables+0x5a>
    100136f8:	4791                	li	a5,4
    100136fa:	ec3e                	sd	a5,24(sp)
    100136fc:	77a2                	ld	a5,40(sp)
    100136fe:	6762                	ld	a4,24(sp)
    10013700:	efb8                	sd	a4,88(a5)
    10013702:	77a2                	ld	a5,40(sp)
    10013704:	6762                	ld	a4,24(sp)
    10013706:	ebd8                	sd	a4,144(a5)
    10013708:	77a2                	ld	a5,40(sp)
    1001370a:	0807bc23          	sd	zero,152(a5)
    1001370e:	77a2                	ld	a5,40(sp)
    10013710:	07a1                	addi	a5,a5,8
    10013712:	853e                	mv	a0,a5
    10013714:	f59fd0ef          	jal	ra,1001166c <vListInitialiseItem>
    10013718:	77a2                	ld	a5,40(sp)
    1001371a:	03078793          	addi	a5,a5,48
    1001371e:	853e                	mv	a0,a5
    10013720:	f4dfd0ef          	jal	ra,1001166c <vListInitialiseItem>
    10013724:	77a2                	ld	a5,40(sp)
    10013726:	7722                	ld	a4,40(sp)
    10013728:	f398                	sd	a4,32(a5)
    1001372a:	67e2                	ld	a5,24(sp)
    1001372c:	2781                	sext.w	a5,a5
    1001372e:	4715                	li	a4,5
    10013730:	40f707bb          	subw	a5,a4,a5
    10013734:	0007871b          	sext.w	a4,a5
    10013738:	77a2                	ld	a5,40(sp)
    1001373a:	db98                	sw	a4,48(a5)
    1001373c:	77a2                	ld	a5,40(sp)
    1001373e:	7722                	ld	a4,40(sp)
    10013740:	e7b8                	sd	a4,72(a5)
    10013742:	77a2                	ld	a5,40(sp)
    10013744:	0607bc23          	sd	zero,120(a5)
    10013748:	77a2                	ld	a5,40(sp)
    1001374a:	0a07a023          	sw	zero,160(a5)
    1001374e:	77a2                	ld	a5,40(sp)
    10013750:	0a07a223          	sw	zero,164(a5)
    10013754:	0001                	nop
    10013756:	60a6                	ld	ra,72(sp)
    10013758:	6161                	addi	sp,sp,80
    1001375a:	8082                	ret

000000001001375c <prvInitialiseTaskLists>:
    1001375c:	1101                	addi	sp,sp,-32
    1001375e:	ec06                	sd	ra,24(sp)
    10013760:	e402                	sd	zero,8(sp)
    10013762:	a00d                	j	10013784 <prvInitialiseTaskLists+0x28>
    10013764:	6722                	ld	a4,8(sp)
    10013766:	87ba                	mv	a5,a4
    10013768:	078a                	slli	a5,a5,0x2
    1001376a:	97ba                	add	a5,a5,a4
    1001376c:	078e                	slli	a5,a5,0x3
    1001376e:	10050737          	lui	a4,0x10050
    10013772:	43870713          	addi	a4,a4,1080 # 10050438 <pxReadyTasksLists>
    10013776:	97ba                	add	a5,a5,a4
    10013778:	853e                	mv	a0,a5
    1001377a:	ebffd0ef          	jal	ra,10011638 <vListInitialise>
    1001377e:	67a2                	ld	a5,8(sp)
    10013780:	0785                	addi	a5,a5,1
    10013782:	e43e                	sd	a5,8(sp)
    10013784:	6722                	ld	a4,8(sp)
    10013786:	4791                	li	a5,4
    10013788:	fce7fee3          	bgeu	a5,a4,10013764 <prvInitialiseTaskLists+0x8>
    1001378c:	100507b7          	lui	a5,0x10050
    10013790:	50078513          	addi	a0,a5,1280 # 10050500 <xDelayedTaskList1>
    10013794:	ea5fd0ef          	jal	ra,10011638 <vListInitialise>
    10013798:	100507b7          	lui	a5,0x10050
    1001379c:	52878513          	addi	a0,a5,1320 # 10050528 <xDelayedTaskList2>
    100137a0:	e99fd0ef          	jal	ra,10011638 <vListInitialise>
    100137a4:	100507b7          	lui	a5,0x10050
    100137a8:	56078513          	addi	a0,a5,1376 # 10050560 <xPendingReadyList>
    100137ac:	e8dfd0ef          	jal	ra,10011638 <vListInitialise>
    100137b0:	100507b7          	lui	a5,0x10050
    100137b4:	58878513          	addi	a0,a5,1416 # 10050588 <xTasksWaitingTermination>
    100137b8:	e81fd0ef          	jal	ra,10011638 <vListInitialise>
    100137bc:	100507b7          	lui	a5,0x10050
    100137c0:	5b878513          	addi	a0,a5,1464 # 100505b8 <xSuspendedTaskList>
    100137c4:	e75fd0ef          	jal	ra,10011638 <vListInitialise>
    100137c8:	100507b7          	lui	a5,0x10050
    100137cc:	10050737          	lui	a4,0x10050
    100137d0:	50070713          	addi	a4,a4,1280 # 10050500 <xDelayedTaskList1>
    100137d4:	54e7b823          	sd	a4,1360(a5) # 10050550 <pxDelayedTaskList>
    100137d8:	100507b7          	lui	a5,0x10050
    100137dc:	10050737          	lui	a4,0x10050
    100137e0:	52870713          	addi	a4,a4,1320 # 10050528 <xDelayedTaskList2>
    100137e4:	54e7bc23          	sd	a4,1368(a5) # 10050558 <pxOverflowDelayedTaskList>
    100137e8:	0001                	nop
    100137ea:	60e2                	ld	ra,24(sp)
    100137ec:	6105                	addi	sp,sp,32
    100137ee:	8082                	ret

00000000100137f0 <prvCheckTasksWaitingTermination>:
    100137f0:	1101                	addi	sp,sp,-32
    100137f2:	ec06                	sd	ra,24(sp)
    100137f4:	a885                	j	10013864 <prvCheckTasksWaitingTermination+0x74>
    100137f6:	cceff0ef          	jal	ra,10012cc4 <vTaskSuspendAll>
    100137fa:	100507b7          	lui	a5,0x10050
    100137fe:	58878793          	addi	a5,a5,1416 # 10050588 <xTasksWaitingTermination>
    10013802:	639c                	ld	a5,0(a5)
    10013804:	0017b793          	seqz	a5,a5
    10013808:	0ff7f793          	andi	a5,a5,255
    1001380c:	e43e                	sd	a5,8(sp)
    1001380e:	cceff0ef          	jal	ra,10012cdc <xTaskResumeAll>
    10013812:	67a2                	ld	a5,8(sp)
    10013814:	eba1                	bnez	a5,10013864 <prvCheckTasksWaitingTermination+0x74>
    10013816:	52a000ef          	jal	ra,10013d40 <vTaskEnterCritical>
    1001381a:	100507b7          	lui	a5,0x10050
    1001381e:	58878793          	addi	a5,a5,1416 # 10050588 <xTasksWaitingTermination>
    10013822:	6f9c                	ld	a5,24(a5)
    10013824:	6f9c                	ld	a5,24(a5)
    10013826:	e03e                	sd	a5,0(sp)
    10013828:	6782                	ld	a5,0(sp)
    1001382a:	07a1                	addi	a5,a5,8
    1001382c:	853e                	mv	a0,a5
    1001382e:	efffd0ef          	jal	ra,1001172c <uxListRemove>
    10013832:	100507b7          	lui	a5,0x10050
    10013836:	5e07b783          	ld	a5,1504(a5) # 100505e0 <uxCurrentNumberOfTasks>
    1001383a:	fff78713          	addi	a4,a5,-1
    1001383e:	100507b7          	lui	a5,0x10050
    10013842:	5ee7b023          	sd	a4,1504(a5) # 100505e0 <uxCurrentNumberOfTasks>
    10013846:	100507b7          	lui	a5,0x10050
    1001384a:	5b07b783          	ld	a5,1456(a5) # 100505b0 <uxTasksDeleted>
    1001384e:	fff78713          	addi	a4,a5,-1
    10013852:	100507b7          	lui	a5,0x10050
    10013856:	5ae7b823          	sd	a4,1456(a5) # 100505b0 <uxTasksDeleted>
    1001385a:	50e000ef          	jal	ra,10013d68 <vTaskExitCritical>
    1001385e:	6502                	ld	a0,0(sp)
    10013860:	2a8000ef          	jal	ra,10013b08 <prvDeleteTCB>
    10013864:	100507b7          	lui	a5,0x10050
    10013868:	5b07b783          	ld	a5,1456(a5) # 100505b0 <uxTasksDeleted>
    1001386c:	f7c9                	bnez	a5,100137f6 <prvCheckTasksWaitingTermination+0x6>
    1001386e:	0001                	nop
    10013870:	0001                	nop
    10013872:	60e2                	ld	ra,24(sp)
    10013874:	6105                	addi	sp,sp,32
    10013876:	8082                	ret

0000000010013878 <prvAddCurrentTaskToDelayedList>:
    10013878:	1101                	addi	sp,sp,-32
    1001387a:	ec06                	sd	ra,24(sp)
    1001387c:	87aa                	mv	a5,a0
    1001387e:	c63e                	sw	a5,12(sp)
    10013880:	100507b7          	lui	a5,0x10050
    10013884:	3107b783          	ld	a5,784(a5) # 10050310 <pxCurrentTCB>
    10013888:	4732                	lw	a4,12(sp)
    1001388a:	c798                	sw	a4,8(a5)
    1001388c:	100507b7          	lui	a5,0x10050
    10013890:	5e87a783          	lw	a5,1512(a5) # 100505e8 <xTickCount>
    10013894:	0007871b          	sext.w	a4,a5
    10013898:	47b2                	lw	a5,12(sp)
    1001389a:	2781                	sext.w	a5,a5
    1001389c:	02e7f063          	bgeu	a5,a4,100138bc <prvAddCurrentTaskToDelayedList+0x44>
    100138a0:	100507b7          	lui	a5,0x10050
    100138a4:	5587b703          	ld	a4,1368(a5) # 10050558 <pxOverflowDelayedTaskList>
    100138a8:	100507b7          	lui	a5,0x10050
    100138ac:	3107b783          	ld	a5,784(a5) # 10050310 <pxCurrentTCB>
    100138b0:	07a1                	addi	a5,a5,8
    100138b2:	85be                	mv	a1,a5
    100138b4:	853a                	mv	a0,a4
    100138b6:	e07fd0ef          	jal	ra,100116bc <vListInsert>
    100138ba:	a82d                	j	100138f4 <prvAddCurrentTaskToDelayedList+0x7c>
    100138bc:	100507b7          	lui	a5,0x10050
    100138c0:	5507b703          	ld	a4,1360(a5) # 10050550 <pxDelayedTaskList>
    100138c4:	100507b7          	lui	a5,0x10050
    100138c8:	3107b783          	ld	a5,784(a5) # 10050310 <pxCurrentTCB>
    100138cc:	07a1                	addi	a5,a5,8
    100138ce:	85be                	mv	a1,a5
    100138d0:	853a                	mv	a0,a4
    100138d2:	debfd0ef          	jal	ra,100116bc <vListInsert>
    100138d6:	100507b7          	lui	a5,0x10050
    100138da:	6207a783          	lw	a5,1568(a5) # 10050620 <xNextTaskUnblockTime>
    100138de:	0007871b          	sext.w	a4,a5
    100138e2:	47b2                	lw	a5,12(sp)
    100138e4:	2781                	sext.w	a5,a5
    100138e6:	00e7f763          	bgeu	a5,a4,100138f4 <prvAddCurrentTaskToDelayedList+0x7c>
    100138ea:	100507b7          	lui	a5,0x10050
    100138ee:	4732                	lw	a4,12(sp)
    100138f0:	62e7a023          	sw	a4,1568(a5) # 10050620 <xNextTaskUnblockTime>
    100138f4:	0001                	nop
    100138f6:	60e2                	ld	ra,24(sp)
    100138f8:	6105                	addi	sp,sp,32
    100138fa:	8082                	ret

00000000100138fc <prvAllocateTCBAndStack>:
    100138fc:	7179                	addi	sp,sp,-48
    100138fe:	f406                	sd	ra,40(sp)
    10013900:	87aa                	mv	a5,a0
    10013902:	e02e                	sd	a1,0(sp)
    10013904:	00f11723          	sh	a5,14(sp)
    10013908:	6782                	ld	a5,0(sp)
    1001390a:	eb89                	bnez	a5,1001391c <prvAllocateTCBAndStack+0x20>
    1001390c:	00e15783          	lhu	a5,14(sp)
    10013910:	078e                	slli	a5,a5,0x3
    10013912:	853e                	mv	a0,a5
    10013914:	6dc010ef          	jal	ra,10014ff0 <pvPortMalloc>
    10013918:	87aa                	mv	a5,a0
    1001391a:	a011                	j	1001391e <prvAllocateTCBAndStack+0x22>
    1001391c:	6782                	ld	a5,0(sp)
    1001391e:	e83e                	sd	a5,16(sp)
    10013920:	67c2                	ld	a5,16(sp)
    10013922:	c385                	beqz	a5,10013942 <prvAllocateTCBAndStack+0x46>
    10013924:	0a800513          	li	a0,168
    10013928:	6c8010ef          	jal	ra,10014ff0 <pvPortMalloc>
    1001392c:	ec2a                	sd	a0,24(sp)
    1001392e:	67e2                	ld	a5,24(sp)
    10013930:	c789                	beqz	a5,1001393a <prvAllocateTCBAndStack+0x3e>
    10013932:	67e2                	ld	a5,24(sp)
    10013934:	6742                	ld	a4,16(sp)
    10013936:	f3b8                	sd	a4,96(a5)
    10013938:	a031                	j	10013944 <prvAllocateTCBAndStack+0x48>
    1001393a:	6542                	ld	a0,16(sp)
    1001393c:	7e4010ef          	jal	ra,10015120 <vPortFree>
    10013940:	a011                	j	10013944 <prvAllocateTCBAndStack+0x48>
    10013942:	ec02                	sd	zero,24(sp)
    10013944:	67e2                	ld	a5,24(sp)
    10013946:	cf81                	beqz	a5,1001395e <prvAllocateTCBAndStack+0x62>
    10013948:	67e2                	ld	a5,24(sp)
    1001394a:	73b8                	ld	a4,96(a5)
    1001394c:	00e15783          	lhu	a5,14(sp)
    10013950:	078e                	slli	a5,a5,0x3
    10013952:	863e                	mv	a2,a5
    10013954:	0a500593          	li	a1,165
    10013958:	853a                	mv	a0,a4
    1001395a:	695020ef          	jal	ra,100167ee <memset>
    1001395e:	67e2                	ld	a5,24(sp)
    10013960:	853e                	mv	a0,a5
    10013962:	70a2                	ld	ra,40(sp)
    10013964:	6145                	addi	sp,sp,48
    10013966:	8082                	ret

0000000010013968 <prvListTaskWithinSingleList>:
    10013968:	711d                	addi	sp,sp,-96
    1001396a:	ec86                	sd	ra,88(sp)
    1001396c:	e8a2                	sd	s0,80(sp)
    1001396e:	ec2a                	sd	a0,24(sp)
    10013970:	e82e                	sd	a1,16(sp)
    10013972:	87b2                	mv	a5,a2
    10013974:	c63e                	sw	a5,12(sp)
    10013976:	e482                	sd	zero,72(sp)
    10013978:	67c2                	ld	a5,16(sp)
    1001397a:	639c                	ld	a5,0(a5)
    1001397c:	14078463          	beqz	a5,10013ac4 <prvListTaskWithinSingleList+0x15c>
    10013980:	67c2                	ld	a5,16(sp)
    10013982:	e0be                	sd	a5,64(sp)
    10013984:	6786                	ld	a5,64(sp)
    10013986:	679c                	ld	a5,8(a5)
    10013988:	6798                	ld	a4,8(a5)
    1001398a:	6786                	ld	a5,64(sp)
    1001398c:	e798                	sd	a4,8(a5)
    1001398e:	6786                	ld	a5,64(sp)
    10013990:	6798                	ld	a4,8(a5)
    10013992:	6786                	ld	a5,64(sp)
    10013994:	07c1                	addi	a5,a5,16
    10013996:	00f71763          	bne	a4,a5,100139a4 <prvListTaskWithinSingleList+0x3c>
    1001399a:	6786                	ld	a5,64(sp)
    1001399c:	679c                	ld	a5,8(a5)
    1001399e:	6798                	ld	a4,8(a5)
    100139a0:	6786                	ld	a5,64(sp)
    100139a2:	e798                	sd	a4,8(a5)
    100139a4:	6786                	ld	a5,64(sp)
    100139a6:	679c                	ld	a5,8(a5)
    100139a8:	6f9c                	ld	a5,24(a5)
    100139aa:	fc3e                	sd	a5,56(sp)
    100139ac:	67c2                	ld	a5,16(sp)
    100139ae:	f83e                	sd	a5,48(sp)
    100139b0:	77c2                	ld	a5,48(sp)
    100139b2:	679c                	ld	a5,8(a5)
    100139b4:	6798                	ld	a4,8(a5)
    100139b6:	77c2                	ld	a5,48(sp)
    100139b8:	e798                	sd	a4,8(a5)
    100139ba:	77c2                	ld	a5,48(sp)
    100139bc:	6798                	ld	a4,8(a5)
    100139be:	77c2                	ld	a5,48(sp)
    100139c0:	07c1                	addi	a5,a5,16
    100139c2:	00f71763          	bne	a4,a5,100139d0 <prvListTaskWithinSingleList+0x68>
    100139c6:	77c2                	ld	a5,48(sp)
    100139c8:	679c                	ld	a5,8(a5)
    100139ca:	6798                	ld	a4,8(a5)
    100139cc:	77c2                	ld	a5,48(sp)
    100139ce:	e798                	sd	a4,8(a5)
    100139d0:	77c2                	ld	a5,48(sp)
    100139d2:	679c                	ld	a5,8(a5)
    100139d4:	6f9c                	ld	a5,24(a5)
    100139d6:	f43e                	sd	a5,40(sp)
    100139d8:	6726                	ld	a4,72(sp)
    100139da:	87ba                	mv	a5,a4
    100139dc:	078e                	slli	a5,a5,0x3
    100139de:	8f99                	sub	a5,a5,a4
    100139e0:	078e                	slli	a5,a5,0x3
    100139e2:	873e                	mv	a4,a5
    100139e4:	67e2                	ld	a5,24(sp)
    100139e6:	97ba                	add	a5,a5,a4
    100139e8:	7722                	ld	a4,40(sp)
    100139ea:	e398                	sd	a4,0(a5)
    100139ec:	6726                	ld	a4,72(sp)
    100139ee:	87ba                	mv	a5,a4
    100139f0:	078e                	slli	a5,a5,0x3
    100139f2:	8f99                	sub	a5,a5,a4
    100139f4:	078e                	slli	a5,a5,0x3
    100139f6:	873e                	mv	a4,a5
    100139f8:	67e2                	ld	a5,24(sp)
    100139fa:	97ba                	add	a5,a5,a4
    100139fc:	7722                	ld	a4,40(sp)
    100139fe:	06870713          	addi	a4,a4,104
    10013a02:	e798                	sd	a4,8(a5)
    10013a04:	6726                	ld	a4,72(sp)
    10013a06:	87ba                	mv	a5,a4
    10013a08:	078e                	slli	a5,a5,0x3
    10013a0a:	8f99                	sub	a5,a5,a4
    10013a0c:	078e                	slli	a5,a5,0x3
    10013a0e:	873e                	mv	a4,a5
    10013a10:	67e2                	ld	a5,24(sp)
    10013a12:	97ba                	add	a5,a5,a4
    10013a14:	7722                	ld	a4,40(sp)
    10013a16:	6358                	ld	a4,128(a4)
    10013a18:	eb98                	sd	a4,16(a5)
    10013a1a:	6726                	ld	a4,72(sp)
    10013a1c:	87ba                	mv	a5,a4
    10013a1e:	078e                	slli	a5,a5,0x3
    10013a20:	8f99                	sub	a5,a5,a4
    10013a22:	078e                	slli	a5,a5,0x3
    10013a24:	873e                	mv	a4,a5
    10013a26:	67e2                	ld	a5,24(sp)
    10013a28:	97ba                	add	a5,a5,a4
    10013a2a:	4732                	lw	a4,12(sp)
    10013a2c:	cf98                	sw	a4,24(a5)
    10013a2e:	6726                	ld	a4,72(sp)
    10013a30:	87ba                	mv	a5,a4
    10013a32:	078e                	slli	a5,a5,0x3
    10013a34:	8f99                	sub	a5,a5,a4
    10013a36:	078e                	slli	a5,a5,0x3
    10013a38:	873e                	mv	a4,a5
    10013a3a:	67e2                	ld	a5,24(sp)
    10013a3c:	97ba                	add	a5,a5,a4
    10013a3e:	7722                	ld	a4,40(sp)
    10013a40:	6f38                	ld	a4,88(a4)
    10013a42:	f398                	sd	a4,32(a5)
    10013a44:	47b2                	lw	a5,12(sp)
    10013a46:	0007871b          	sext.w	a4,a5
    10013a4a:	478d                	li	a5,3
    10013a4c:	00f71f63          	bne	a4,a5,10013a6a <prvListTaskWithinSingleList+0x102>
    10013a50:	77a2                	ld	a5,40(sp)
    10013a52:	6bbc                	ld	a5,80(a5)
    10013a54:	cb99                	beqz	a5,10013a6a <prvListTaskWithinSingleList+0x102>
    10013a56:	6726                	ld	a4,72(sp)
    10013a58:	87ba                	mv	a5,a4
    10013a5a:	078e                	slli	a5,a5,0x3
    10013a5c:	8f99                	sub	a5,a5,a4
    10013a5e:	078e                	slli	a5,a5,0x3
    10013a60:	873e                	mv	a4,a5
